///////////////////////////////////////////////////////////////////////////////
//
// IAR ANSI C/C++ Compiler V9.30.1.335/W64 for ARM        27/Apr/2025  21:19:45
// Copyright 1999-2022 IAR Systems AB.
//
//    Cpu mode     =  thumb
//    Endian       =  little
//    Source file  =
//        D:\Documents\Homework\GitLab\CoursePaper\source\RtosWrapper\main.cpp
//        [UTF-8]
//    Command line =
//        -f
//        D:\Documents\Homework\GitLab\CoursePaper\source\RtosWrapper\Debug\Obj\main.o.rsp
//        (D:\Documents\Homework\GitLab\CoursePaper\source\RtosWrapper\main.cpp
//        -lC
//        D:\Documents\Homework\GitLab\CoursePaper\source\RtosWrapper\Debug\List\
//        -lA
//        D:\Documents\Homework\GitLab\CoursePaper\source\RtosWrapper\Debug\List\
//        -o
//        D:\Documents\Homework\GitLab\CoursePaper\source\RtosWrapper\Debug\Obj\
//        --no_cse --no_unroll --no_inline --no_code_motion --no_tbaa
//        --no_clustering --no_scheduling --debug --endian=little
//        --cpu=Cortex-M4 -e --fpu=VFPv4_sp --dlib_config
//        D:\Programs\IAR\arm\inc\c\DLib_Config_Normal.h -I
//        D:\Documents\Homework\GitLab\CoursePaper\source\RtosWrapper\Rtos\ -I
//        D:\Documents\Homework\GitLab\CoursePaper\source\RtosWrapper\Rtos\wrapper\
//        -I
//        D:\Documents\Homework\GitLab\CoursePaper\source\RtosWrapper\Rtos\wrapper\FreeRtos\
//        -I
//        D:\Documents\Homework\GitLab\CoursePaper\source\RtosWrapper\Rtos\FreeRtos\
//        -I
//        D:\Documents\Homework\GitLab\CoursePaper\source\RtosWrapper\Rtos\FreeRtos\include\
//        -I
//        D:\Documents\Homework\GitLab\CoursePaper\source\RtosWrapper\Rtos\FreeRtos\portable\
//        -I
//        D:\Documents\Homework\GitLab\CoursePaper\source\RtosWrapper\Rtos\FreeRtos\portable\Common\
//        -I
//        D:\Documents\Homework\GitLab\CoursePaper\source\RtosWrapper\Rtos\FreeRtos\portable\IAR\
//        -I
//        D:\Documents\Homework\GitLab\CoursePaper\source\RtosWrapper\Rtos\FreeRtos\portable\IAR\ARM_CM4F\
//        -I
//        D:\Documents\Homework\GitLab\CoursePaper\source\RtosWrapper\Rtos\FreeRtos\portable\MemMang\
//        -I
//        D:\Documents\Homework\GitLab\CoursePaper\source\RtosWrapper\MyTasks\
//        -I
//        D:\Documents\Homework\GitLab\CoursePaper\source\RtosWrapper\Common\
//        -I D:\Documents\Homework\GitLab\CoursePaper\source\RtosWrapper\CMSIS\
//        -I
//        D:\Documents\Homework\GitLab\CoursePaper\source\RtosWrapper\Application\
//        -I
//        D:\Documents\Homework\GitLab\CoursePaper\source\RtosWrapper\Application\Diagnostic\
//        -I
//        D:\Documents\Homework\GitLab\CoursePaper\source\RtosWrapper\AHardware\
//        -I
//        D:\Documents\Homework\GitLab\CoursePaper\source\RtosWrapper\AHardware\GpioPort\
//        -I
//        D:\Documents\Homework\GitLab\CoursePaper\source\RtosWrapper\AHardware\IrqController\
//        -I
//        D:\Documents\Homework\GitLab\CoursePaper\source\RtosWrapper\..\CortexLib\AbstractHardware\Pin\
//        -I
//        D:\Documents\Homework\GitLab\CoursePaper\source\RtosWrapper\..\CortexLib\AbstractHardware\Registers\STM32F411\FieldValues\
//        -I
//        D:\Documents\Homework\GitLab\CoursePaper\source\RtosWrapper\..\CortexLib\AbstractHardware\Registers\STM32F411\
//        -I
//        D:\Documents\Homework\GitLab\CoursePaper\source\RtosWrapper\..\CortexLib\AbstractHardware\Registers\
//        -I
//        D:\Documents\Homework\GitLab\CoursePaper\source\RtosWrapper\..\CortexLib\AbstractHardware\Port\
//        -I
//        D:\Documents\Homework\GitLab\CoursePaper\source\RtosWrapper\..\CortexLib\AbstractHardware\Atomic\
//        -I
//        D:\Documents\Homework\GitLab\CoursePaper\source\RtosWrapper\..\CortexLib\Common\
//        -I
//        D:\Documents\Homework\GitLab\CoursePaper\source\RtosWrapper\..\CortexLib\Common\Singleton\
//        -I
//        D:\Documents\Homework\GitLab\CoursePaper\source\RtosWrapper\..\CortexLib\Common\RomObject\
//        -I
//        D:\Documents\Homework\GitLab\CoursePaper\source\RtosWrapper\Application\AdcDmaDataProvider\
//        -I
//        D:\Documents\Homework\GitLab\CoursePaper\source\RtosWrapper\Application\AdcDmaDataProvider\Contracts\
//        -I
//        D:\Documents\Homework\GitLab\CoursePaper\source\RtosWrapper\Application\DataRepository\
//        -I
//        D:\Documents\Homework\GitLab\CoursePaper\source\RtosWrapper\Application\DataRepository\Contracts\
//        -I
//        D:\Documents\Homework\GitLab\CoursePaper\source\RtosWrapper\Application\DigitalFilter\
//        -I
//        D:\Documents\Homework\GitLab\CoursePaper\source\RtosWrapper\Application\DigitalFilter\Contracts\
//        -I
//        D:\Documents\Homework\GitLab\CoursePaper\source\RtosWrapper\Application\Formatter\
//        -I
//        D:\Documents\Homework\GitLab\CoursePaper\source\RtosWrapper\Application\Formatter\Contracts\
//        -I
//        D:\Documents\Homework\GitLab\CoursePaper\source\RtosWrapper\Application\Leds\
//        -I
//        D:\Documents\Homework\GitLab\CoursePaper\source\RtosWrapper\Application\Leds\Contracts\
//        -I
//        D:\Documents\Homework\GitLab\CoursePaper\source\RtosWrapper\Application\Usart\
//        -I
//        D:\Documents\Homework\GitLab\CoursePaper\source\RtosWrapper\Application\Usart\Contracts\
//        -I
//        D:\Documents\Homework\GitLab\CoursePaper\source\RtosWrapper\Application\Voltage\
//        -I
//        D:\Documents\Homework\GitLab\CoursePaper\source\RtosWrapper\Application\Voltage\Contracts\
//        -I D:\Documents\Homework\GitLab\CoursePaper\source\RtosWrapper\Tasks\
//        -I
//        D:\Documents\Homework\GitLab\CoursePaper\source\RtosWrapper\Tasks\Contracts\
//        -I
//        D:\Documents\Homework\GitLab\CoursePaper\source\RtosWrapper\..\CortexLib\AbstractHardware\Registers\CortexM4\
//        -I
//        D:\Documents\Homework\GitLab\CoursePaper\source\RtosWrapper\..\CortexLib\AbstractHardware\Registers\CortexM4\FieldValues\
//        -On --c++ --no_exceptions --no_rtti --source_encoding utf8 --text_out
//        utf8 --utf8_text_in) --dependencies=n
//        D:\Documents\Homework\GitLab\CoursePaper\source\RtosWrapper\Debug\Obj\main.o.d
//    Locale       =  C
//    List file    =
//        D:\Documents\Homework\GitLab\CoursePaper\source\RtosWrapper\Debug\List\main.s
//
///////////////////////////////////////////////////////////////////////////////

        RTMODEL "__CPP_Exceptions", "Disabled"
        RTMODEL "__CPP_Language", "C++14"
        RTMODEL "__CPP_Library", "DLib"
        RTMODEL "__CPP_Runtime", "1"
        RTMODEL "__SystemLibrary", "DLib"
        RTMODEL "__dlib_file_descriptor", "0"
        RTMODEL "__dlib_full_locale_support", "0"
        RTMODEL "__dlib_version", "6"
        AAPCS BASE,INTERWORK,VFP
        PRESERVE8
        REQUIRE8

        #define SHT_PROGBITS 0x1
        #define SHT_INIT_ARRAY 0xe

        EXTERN _ZN13LedCalculatorC1ERKhRKf
        EXTERN _ZN13LedControllerC1Ev
        EXTERN _ZN14DataRepositoryC1Ev
        EXTERN _ZN15MeasurementTaskC1ER16IRawDataProviderR14IDigitalFilterIfER8IVoltageR14ILedCalculatorR14ILedControllerR22IDataRepositoryUpdater
        EXTERN _ZN18AdcDmaDataProvider9ConfigAdcEv
        EXTERN _ZN18AdcDmaDataProviderC1Ev
        EXTERN _ZN5Usart11ConfigUsartEv
        EXTERN _ZN5UsartC1Ev
        EXTERN _ZN9FormatterC1Ev
        EXTERN _ZN9UsartTaskC1ER23IDataRepositoryProviderR6IUsartR10IFormatter
        EXTERN _ZTVN10__cxxabiv117__class_type_infoE
        EXTERN _ZTVN10__cxxabiv120__si_class_type_infoE
        EXTERN expf
        EXTERN vTaskStartScheduler
        EXTERN xTaskCreateStatic
        EXTERN xTaskGetTickCount

        PUBLIC SystemCoreClock
        PUBLIC _ZN14FieldValueBaseI18RCC_CFGR_SW_ValuesIN3RCC4CFGRELj0ELj2E13ReadWriteModeNS1_11RCCCFGRBaseEES4_Lj1EE3SetIS3_vEEvv
        PUBLIC _ZN14FieldValueBaseI19RCC_CFGR_SWS_ValuesIN3RCC4CFGRELj2ELj2E8ReadModeNS1_11RCCCFGRBaseEES4_Lj1EE5IsSetIS3_vEEbv
        PUBLIC _ZN14FieldValueBaseI19RCC_CR_HSEON_ValuesIN3RCC2CRELj16ELj1E13ReadWriteModeNS1_9RCCCRBaseEES4_Lj1EE3SetIS3_vEEvv
        PUBLIC _ZN14FieldValueBaseI20RCC_CR_HSERDY_ValuesIN3RCC2CRELj17ELj1E8ReadModeNS1_9RCCCRBaseEES4_Lj0EE5IsSetIS3_vEEbv
        PUBLIC _ZN14FieldValueBaseI20USART2_CR1_TE_ValuesIN6USART23CR1ELj3ELj1E13ReadWriteModeNS1_13USART2CR1BaseEES4_Lj1EE3SetIS3_vEEvv
        PUBLIC _ZN14FieldValueBaseI20USART2_CR1_UE_ValuesIN6USART23CR1ELj13ELj1E13ReadWriteModeNS1_13USART2CR1BaseEES4_Lj1EE3SetIS3_vEEvv
        PUBLIC _ZN14FieldValueBaseI25RCC_AHB1ENR_DMA2EN_ValuesIN3RCC7AHB1ENRELj22ELj1E13ReadWriteModeNS1_14RCCAHB1ENRBaseEES4_Lj1EE3SetIS3_vEEvv
        PUBLIC _ZN14FieldValueBaseI25RCC_AHB1ENR_DMA2EN_ValuesIN3RCC7APB1ENRELj17ELj1E13ReadWriteModeNS1_14RCCAPB1ENRBaseEES4_Lj1EE3SetIS3_vEEvv
        PUBLIC _ZN14FieldValueBaseI25RCC_AHB1ENR_DMA2EN_ValuesIN3RCC7APB2ENRELj14ELj1E13ReadWriteModeNS1_14RCCAPB2ENRBaseEES4_Lj1EE3SetIS3_vEEvv
        PUBLIC _ZN14FieldValueBaseI25RCC_AHB1ENR_DMA2EN_ValuesIN3RCC7APB2ENRELj8ELj1E13ReadWriteModeNS1_14RCCAPB2ENRBaseEES4_Lj1EE3SetIS3_vEEvv
        PUBLIC _ZN14FieldValueBaseI26GPIOA_MODER_MODER15_ValuesIN5GPIOA5MODERELj0ELj2E13ReadWriteModeNS1_14GPIOAMODERBaseEES4_Lj3EE3SetIS3_vEEvv
        PUBLIC _ZN14FieldValueBaseI26GPIOA_MODER_MODER15_ValuesIN5GPIOA5MODERELj10ELj2E13ReadWriteModeNS1_14GPIOAMODERBaseEES4_Lj1EE3SetIS3_vEEvv
        PUBLIC _ZN14IDigitalFilterIfEC1Ev
        PUBLIC _ZN14IDigitalFilterIfEC2Ev
        PUBLIC _ZN8IVoltageC1Ev
        PUBLIC _ZN8IVoltageC2Ev
        PUBLIC _ZN8RegisterILj1073874944ELj32E13ReadWriteModeN5GPIOC14GPIOCMODERBaseEJ10FieldValueI26GPIOC_MODER_MODER15_ValuesINS1_5MODERELj10ELj2ES0_S2_ES2_Lj1EvES3_IS4_IS5_Lj16ELj2ES0_S2_ES2_Lj1EvES3_IS4_IS5_Lj18ELj2ES0_S2_ES2_Lj1EvEEE3SetIS0_vEEvv
        PUBLIC _ZN8RegisterILj1073887280ELj32E13ReadWriteModeN3RCC14RCCAHB1ENRBaseEJ10FieldValueI26RCC_AHB1ENR_GPIOCEN_ValuesINS1_7AHB1ENRELj2ELj1ES0_S2_ES2_Lj1EvES3_I26RCC_AHB1ENR_GPIOAEN_ValuesIS5_Lj0ELj1ES0_S2_ES2_Lj1EvEEE3SetIS0_vEEvv
        PUBLIC _ZN9OsWrapper11RtosWrapper13wCreateThreadINS_4RtosE15MeasurementTaskEEvRT0_PKcNS_14ThreadPriorityEtPj
        PUBLIC _ZN9OsWrapper11RtosWrapper13wCreateThreadINS_4RtosE9UsartTaskEEvRT0_PKcNS_14ThreadPriorityEtPj
        PUBLIC _ZN9OsWrapper11RtosWrapper6wStartEv
        PUBLIC _ZN9OsWrapper11RtosWrapper9wGetTicksEv
        PUBLIC _ZN9OsWrapper4Rtos12CreateThreadI15MeasurementTaskEEvRT_PKcNS_14ThreadPriorityE
        PUBLIC _ZN9OsWrapper4Rtos12CreateThreadI9UsartTaskEEvRT_PKcNS_14ThreadPriorityE
        PUBLIC _ZN9OsWrapper4Rtos3RunEPv
        PUBLIC _ZN9OsWrapper4Rtos5StartEv
        PUBLIC _ZN9OsWrapper7IThread3RunEv
        PUBLIC _ZNSt5arrayIjLj512EE4dataEv
        PUBLIC _ZTI14IDigitalFilterIfE
        PUBLIC _ZTI16IRawDataProvider
        PUBLIC _ZTI8IVoltage
        PUBLIC _ZTIN9OsWrapper7IThreadE
        PUBLIC _ZTISt10ctype_base
        PUBLIC _ZTS13DigitalFilterIfL_ZN29_INTERNAL_8_main_cpp_5d646a672dtEEL_ZNS0_2rcEEE
        PUBLIC _ZTS14IDigitalFilterIfE
        PUBLIC _ZTS16IRawDataProvider
        PUBLIC _ZTS7VoltageIL_ZN29_INTERNAL_8_main_cpp_5d646a6712maxAdcCountsEEL_ZNS0_12minAdcCountsEEL_ZNS0_10maxVoltageEEL_ZNS0_10minVoltageEEE
        PUBLIC _ZTS8IVoltage
        PUBLIC _ZTSN9OsWrapper7IThreadE
        PUBLIC _ZTSSt10ctype_base
        PUBLIC _ZZN8RegisterILj1073874944ELj32E13ReadWriteModeN5GPIOC14GPIOCMODERBaseEJ10FieldValueI26GPIOC_MODER_MODER15_ValuesINS1_5MODERELj10ELj2ES0_S2_ES2_Lj1EvES3_IS4_IS5_Lj16ELj2ES0_S2_ES2_Lj1EvES3_IS4_IS5_Lj18ELj2ES0_S2_ES2_Lj1EvEEE3SetIS0_vEEvvE4mask
        PUBLIC _ZZN8RegisterILj1073874944ELj32E13ReadWriteModeN5GPIOC14GPIOCMODERBaseEJ10FieldValueI26GPIOC_MODER_MODER15_ValuesINS1_5MODERELj10ELj2ES0_S2_ES2_Lj1EvES3_IS4_IS5_Lj16ELj2ES0_S2_ES2_Lj1EvES3_IS4_IS5_Lj18ELj2ES0_S2_ES2_Lj1EvEEE3SetIS0_vEEvvE5value
        PUBLIC _ZZN8RegisterILj1073887280ELj32E13ReadWriteModeN3RCC14RCCAHB1ENRBaseEJ10FieldValueI26RCC_AHB1ENR_GPIOCEN_ValuesINS1_7AHB1ENRELj2ELj1ES0_S2_ES2_Lj1EvES3_I26RCC_AHB1ENR_GPIOAEN_ValuesIS5_Lj0ELj1ES0_S2_ES2_Lj1EvEEE3SetIS0_vEEvvE4mask
        PUBLIC _ZZN8RegisterILj1073887280ELj32E13ReadWriteModeN3RCC14RCCAHB1ENRBaseEJ10FieldValueI26RCC_AHB1ENR_GPIOCEN_ValuesINS1_7AHB1ENRELj2ELj1ES0_S2_ES2_Lj1EvES3_I26RCC_AHB1ENR_GPIOAEN_ValuesIS5_Lj0ELj1ES0_S2_ES2_Lj1EvEEE3SetIS0_vEEvvE5value
        PUBLIC __low_level_init
        PUBLIC `adc`
        PUBLIC dataReposiitory
        PUBLIC digitalFilter
        PUBLIC formatter
        PUBLIC ledCalculator
        PUBLIC ledController
        PUBLIC main
        PUBLIC measurementTask
        PUBLIC usart
        PUBLIC usartTask
        PUBLIC voltage
        
          CFI Names cfiNames0
          CFI StackFrame CFA R13 DATA
          CFI Resource R0:32, R1:32, R2:32, R3:32, R4:32, R5:32, R6:32, R7:32
          CFI Resource R8:32, R9:32, R10:32, R11:32, R12:32, R13:32, R14:32
          CFI Resource D0:64, D1:64, D2:64, D3:64, D4:64, D5:64, D6:64, D7:64
          CFI Resource D8:64, D9:64, D10:64, D11:64, D12:64, D13:64, D14:64
          CFI Resource D15:64
          CFI EndNames cfiNames0
        
          CFI Common cfiCommon0 Using cfiNames0
          CFI CodeAlign 2
          CFI DataAlign 4
          CFI ReturnAddress R14 CODE
          CFI CFA R13+0
          CFI R0 Undefined
          CFI R1 Undefined
          CFI R2 Undefined
          CFI R3 Undefined
          CFI R4 SameValue
          CFI R5 SameValue
          CFI R6 SameValue
          CFI R7 SameValue
          CFI R8 SameValue
          CFI R9 SameValue
          CFI R10 SameValue
          CFI R11 SameValue
          CFI R12 Undefined
          CFI R14 SameValue
          CFI D0 Undefined
          CFI D1 Undefined
          CFI D2 Undefined
          CFI D3 Undefined
          CFI D4 Undefined
          CFI D5 Undefined
          CFI D6 Undefined
          CFI D7 Undefined
          CFI D8 SameValue
          CFI D9 SameValue
          CFI D10 SameValue
          CFI D11 SameValue
          CFI D12 SameValue
          CFI D13 SameValue
          CFI D14 SameValue
          CFI D15 SameValue
          CFI EndCommon cfiCommon0
        

        SECTION `.rodata`:CONST:REORDER:NOROOT(2)
        SECTION_GROUP _ZTIN9OsWrapper7IThreadE
        DATA
// __absolute __class_type_info const <Typeinfo for OsWrapper::IThread>
_ZTIN9OsWrapper7IThreadE:
        DATA32
        DC32 _ZTVN10__cxxabiv117__class_type_infoE + 0x8
        DC32 _ZTSN9OsWrapper7IThreadE

        SECTION `.rodata`:CONST:REORDER:NOROOT(2)
        DATA
// __absolute void (*const DigitalFilter<float, dt, rc>::__vtbl[3])()
_ZTV13DigitalFilterIfL_ZN29_INTERNAL_8_main_cpp_5d646a672dtEEL_ZNS0_2rcEEE:
        DATA32
        DC32 0x0
        DC32 _ZTI13DigitalFilterIfL_ZN29_INTERNAL_8_main_cpp_5d646a672dtEEL_ZNS0_2rcEEE
        DC32 _ZN13DigitalFilterIfL_ZN29_INTERNAL_8_main_cpp_5d646a672dtEEL_ZNS0_2rcEEE11FilterValueEf

        SECTION `.rodata`:CONST:REORDER:NOROOT(2)
        DATA
// __absolute void (*const Voltage<maxAdcCounts, minAdcCounts, maxVoltage, minVoltage>::__vtbl[3])()
_ZTV7VoltageIL_ZN29_INTERNAL_8_main_cpp_5d646a6712maxAdcCountsEEL_ZNS0_12minAdcCountsEEL_ZNS0_10maxVoltageEEL_ZNS0_10minVoltageEEE:
        DATA32
        DC32 0x0
        DC32 _ZTI7VoltageIL_ZN29_INTERNAL_8_main_cpp_5d646a6712maxAdcCountsEEL_ZNS0_12minAdcCountsEEL_ZNS0_10maxVoltageEEL_ZNS0_10minVoltageEEE
        DC32 _ZN7VoltageIL_ZN29_INTERNAL_8_main_cpp_5d646a6712maxAdcCountsEEL_ZNS0_12minAdcCountsEEL_ZNS0_10maxVoltageEEL_ZNS0_10minVoltageEEE7MeasureEv

        SECTION `.rodata`:CONST:REORDER:NOROOT(2)
        SECTION_GROUP _ZTI16IRawDataProvider
        DATA
// __absolute __class_type_info const <Typeinfo for IRawDataProvider>
_ZTI16IRawDataProvider:
        DATA32
        DC32 _ZTVN10__cxxabiv117__class_type_infoE + 0x8
        DC32 _ZTS16IRawDataProvider

        SECTION `.rodata`:CONST:REORDER:NOROOT(2)
        SECTION_GROUP _ZTI8IVoltage
        DATA
// __absolute __class_type_info const <Typeinfo for IVoltage>
_ZTI8IVoltage:
        DATA32
        DC32 _ZTVN10__cxxabiv117__class_type_infoE + 0x8, _ZTS8IVoltage

        SECTION `.rodata`:CONST:REORDER:NOROOT(2)
        SECTION_GROUP _ZTI14IDigitalFilterIfE
        DATA
// __absolute __class_type_info const <Typeinfo for IDigitalFilter<float>>
_ZTI14IDigitalFilterIfE:
        DATA32
        DC32 _ZTVN10__cxxabiv117__class_type_infoE + 0x8
        DC32 _ZTS14IDigitalFilterIfE

        SECTION `.rodata`:CONST:REORDER:NOROOT(2)
        DATA
// static __absolute __si_class_type_info const <Typeinfo for DigitalFilter<float, [local to main_cpp]::dt, [local to main_cpp]::rc>>
_ZTI13DigitalFilterIfL_ZN29_INTERNAL_8_main_cpp_5d646a672dtEEL_ZNS0_2rcEEE:
        DATA32
        DC32 _ZTVN10__cxxabiv120__si_class_type_infoE + 0x8
        DC32 _ZTS13DigitalFilterIfL_ZN29_INTERNAL_8_main_cpp_5d646a672dtEEL_ZNS0_2rcEEE
        DC32 _ZTI14IDigitalFilterIfE

        SECTION `.rodata`:CONST:REORDER:NOROOT(2)
        DATA
// static __absolute __si_class_type_info const <Typeinfo for Voltage<[local to main_cpp]::maxAdcCounts, [local to main_cpp]::minAdcCounts, [local to main_cpp]::maxVoltage, [local to main_cpp]::minVoltage>>
_ZTI7VoltageIL_ZN29_INTERNAL_8_main_cpp_5d646a6712maxAdcCountsEEL_ZNS0_12minAdcCountsEEL_ZNS0_10maxVoltageEEL_ZNS0_10minVoltageEEE:
        DATA32
        DC32 _ZTVN10__cxxabiv120__si_class_type_infoE + 0x8
        DC32 _ZTS7VoltageIL_ZN29_INTERNAL_8_main_cpp_5d646a6712maxAdcCountsEEL_ZNS0_12minAdcCountsEEL_ZNS0_10maxVoltageEEL_ZNS0_10minVoltageEEE
        DC32 _ZTI8IVoltage

        SECTION `.rodata`:CONST:REORDER:NOROOT(2)
        SECTION_GROUP _ZTS16IRawDataProvider
        DATA
// __absolute char const <Typeinfo name for IRawDataProvider>[19]
_ZTS16IRawDataProvider:
        DATA8
        DC8 "16IRawDataProvider"
        DS8 1

        SECTION `.rodata`:CONST:REORDER:NOROOT(2)
        SECTION_GROUP _ZTS8IVoltage
        DATA
// __absolute char const <Typeinfo name for IVoltage>[10]
_ZTS8IVoltage:
        DATA8
        DC8 "8IVoltage"
        DATA16
        DS8 2

        SECTION `.rodata`:CONST:REORDER:NOROOT(2)
        SECTION_GROUP _ZTS14IDigitalFilterIfE
        DATA
// __absolute char const <Typeinfo name for IDigitalFilter<float>>[20]
_ZTS14IDigitalFilterIfE:
        DATA8
        DC8 "14IDigitalFilterIfE"

        SECTION `.rodata`:CONST:REORDER:NOROOT(2)
        SECTION_GROUP _ZTS13DigitalFilterIfL_ZN29_INTERNAL_8_main_cpp_5d646a672dtEEL_ZNS0_2rcEEE
        DATA
// __absolute char const <Typeinfo name for DigitalFilter<float, [local to main_cpp]::dt, [local to main_cpp]::rc>>[71]
_ZTS13DigitalFilterIfL_ZN29_INTERNAL_8_main_cpp_5d646a672dtEEL_ZNS0_2rcEEE:
        DATA8
        DC8 0x31, 0x33, 0x44, 0x69, 0x67, 0x69, 0x74, 0x61
        DC8 0x6C, 0x46, 0x69, 0x6C, 0x74, 0x65, 0x72, 0x49
        DC8 0x66, 0x4C, 0x5F, 0x5A, 0x4E, 0x32, 0x39, 0x5F
        DC8 0x49, 0x4E, 0x54, 0x45, 0x52, 0x4E, 0x41, 0x4C
        DC8 0x5F, 0x38, 0x5F, 0x6D, 0x61, 0x69, 0x6E, 0x5F
        DC8 0x63, 0x70, 0x70, 0x5F, 0x35, 0x64, 0x36, 0x34
        DC8 0x36, 0x61, 0x36, 0x37, 0x32, 0x64, 0x74, 0x45
        DC8 0x45, 0x4C, 0x5F, 0x5A, 0x4E, 0x53, 0x30, 0x5F
        DC8 0x32, 0x72, 0x63, 0x45, 0x45, 0x45, 0
        DS8 1

        SECTION `.rodata`:CONST:REORDER:NOROOT(2)
        SECTION_GROUP _ZTS7VoltageIL_ZN29_INTERNAL_8_main_cpp_5d646a6712maxAdcCountsEEL_ZNS0_12minAdcCountsEEL_ZNS0_10maxVoltageEEL_ZNS0_10minVoltageEEE
        DATA
// __absolute char const <Typeinfo name for Voltage<[local to main_cpp]::maxAdcCounts, [local to main_cpp]::minAdcCounts, [local to main_cpp]::maxVoltage, [local to main_cpp]::minVoltage>>[127]
_ZTS7VoltageIL_ZN29_INTERNAL_8_main_cpp_5d646a6712maxAdcCountsEEL_ZNS0_12minAdcCountsEEL_ZNS0_10maxVoltageEEL_ZNS0_10minVoltageEEE:
        DATA8
        DC8 0x37, 0x56, 0x6F, 0x6C, 0x74, 0x61, 0x67, 0x65
        DC8 0x49, 0x4C, 0x5F, 0x5A, 0x4E, 0x32, 0x39, 0x5F
        DC8 0x49, 0x4E, 0x54, 0x45, 0x52, 0x4E, 0x41, 0x4C
        DC8 0x5F, 0x38, 0x5F, 0x6D, 0x61, 0x69, 0x6E, 0x5F
        DC8 0x63, 0x70, 0x70, 0x5F, 0x35, 0x64, 0x36, 0x34
        DC8 0x36, 0x61, 0x36, 0x37, 0x31, 0x32, 0x6D, 0x61
        DC8 0x78, 0x41, 0x64, 0x63, 0x43, 0x6F, 0x75, 0x6E
        DC8 0x74, 0x73, 0x45, 0x45, 0x4C, 0x5F, 0x5A, 0x4E
        DC8 0x53, 0x30, 0x5F, 0x31, 0x32, 0x6D, 0x69, 0x6E
        DC8 0x41, 0x64, 0x63, 0x43, 0x6F, 0x75, 0x6E, 0x74
        DC8 0x73, 0x45, 0x45, 0x4C, 0x5F, 0x5A, 0x4E, 0x53
        DC8 0x30, 0x5F, 0x31, 0x30, 0x6D, 0x61, 0x78, 0x56
        DC8 0x6F, 0x6C, 0x74, 0x61, 0x67, 0x65, 0x45, 0x45
        DC8 0x4C, 0x5F, 0x5A, 0x4E, 0x53, 0x30, 0x5F, 0x31
        DC8 0x30, 0x6D, 0x69, 0x6E, 0x56, 0x6F, 0x6C, 0x74
        DC8 0x61, 0x67, 0x65, 0x45, 0x45, 0x45, 0
        DS8 1

        SECTION `.rodata`:CONST:REORDER:NOROOT(2)
        SECTION_GROUP _ZTISt10ctype_base
        DATA
// __absolute __class_type_info const <Typeinfo for std::ctype_base>
_ZTISt10ctype_base:
        DATA32
        DC32 _ZTVN10__cxxabiv117__class_type_infoE + 0x8, _ZTSSt10ctype_base

        SECTION `.rodata`:CONST:REORDER:NOROOT(2)
        SECTION_GROUP _ZTSSt10ctype_base
        DATA
// __absolute char const <Typeinfo name for std::ctype_base>[15]
_ZTSSt10ctype_base:
        DATA8
        DC8 "St10ctype_base"
        DS8 1

        SECTION `.rodata`:CONST:REORDER:NOROOT(2)
        SECTION_GROUP _ZTSN9OsWrapper7IThreadE
        DATA
// __absolute char const <Typeinfo name for OsWrapper::IThread>[21]
_ZTSN9OsWrapper7IThreadE:
        DATA8
        DC8 "N9OsWrapper7IThreadE"
        DATA
        DS8 3

        SECTION `.rodata`:CONST:REORDER:NOROOT(2)
        DATA
?_0:
        DATA8
        DC8 "MeasurementTask"

        SECTION `.rodata`:CONST:REORDER:NOROOT(2)
        DATA
?_1:
        DATA8
        DC8 "UsartTask"
        DATA16
        DS8 2
// D:\Documents\Homework\GitLab\CoursePaper\source\RtosWrapper\main.cpp
//    1 #include "rtos.hpp"         // for Rtos
//    2 
//    3 #include "rccregisters.hpp" // for RCC

        SECTION `.rodata`:CONST:REORDER:NOROOT(2)
        SECTION_GROUP _ZZN8RegisterILj1073887280ELj32E13ReadWriteModeN3RCC14RCCAHB1ENRBaseEJ10FieldValueI26RCC_AHB1ENR_GPIOCEN_ValuesINS1_7AHB1ENRELj2ELj1ES0_S2_ES2_Lj1EvES3_I26RCC_AHB1ENR_GPIOAEN_ValuesIS5_Lj0ELj1ES0_S2_ES2_Lj1EvEEE3SetIS0_vEEvvE4mask
        DATA
// __absolute unsigned int const mask
_ZZN8RegisterILj1073887280ELj32E13ReadWriteModeN3RCC14RCCAHB1ENRBaseEJ10FieldValueI26RCC_AHB1ENR_GPIOCEN_ValuesINS1_7AHB1ENRELj2ELj1ES0_S2_ES2_Lj1EvES3_I26RCC_AHB1ENR_GPIOAEN_ValuesIS5_Lj0ELj1ES0_S2_ES2_Lj1EvEEE3SetIS0_vEEvvE4mask:
        DATA32
        DC32 5

        SECTION `.rodata`:CONST:REORDER:NOROOT(2)
        SECTION_GROUP _ZZN8RegisterILj1073874944ELj32E13ReadWriteModeN5GPIOC14GPIOCMODERBaseEJ10FieldValueI26GPIOC_MODER_MODER15_ValuesINS1_5MODERELj10ELj2ES0_S2_ES2_Lj1EvES3_IS4_IS5_Lj16ELj2ES0_S2_ES2_Lj1EvES3_IS4_IS5_Lj18ELj2ES0_S2_ES2_Lj1EvEEE3SetIS0_vEEvvE4mask
        DATA
// __absolute unsigned int const mask
_ZZN8RegisterILj1073874944ELj32E13ReadWriteModeN5GPIOC14GPIOCMODERBaseEJ10FieldValueI26GPIOC_MODER_MODER15_ValuesINS1_5MODERELj10ELj2ES0_S2_ES2_Lj1EvES3_IS4_IS5_Lj16ELj2ES0_S2_ES2_Lj1EvES3_IS4_IS5_Lj18ELj2ES0_S2_ES2_Lj1EvEEE3SetIS0_vEEvvE4mask:
        DATA32
        DC32 986'112

        SECTION `.rodata`:CONST:REORDER:NOROOT(2)
        SECTION_GROUP _ZZN8RegisterILj1073887280ELj32E13ReadWriteModeN3RCC14RCCAHB1ENRBaseEJ10FieldValueI26RCC_AHB1ENR_GPIOCEN_ValuesINS1_7AHB1ENRELj2ELj1ES0_S2_ES2_Lj1EvES3_I26RCC_AHB1ENR_GPIOAEN_ValuesIS5_Lj0ELj1ES0_S2_ES2_Lj1EvEEE3SetIS0_vEEvvE5value
        DATA
// __absolute unsigned int const value
_ZZN8RegisterILj1073887280ELj32E13ReadWriteModeN3RCC14RCCAHB1ENRBaseEJ10FieldValueI26RCC_AHB1ENR_GPIOCEN_ValuesINS1_7AHB1ENRELj2ELj1ES0_S2_ES2_Lj1EvES3_I26RCC_AHB1ENR_GPIOAEN_ValuesIS5_Lj0ELj1ES0_S2_ES2_Lj1EvEEE3SetIS0_vEEvvE5value:
        DATA32
        DC32 5

        SECTION `.rodata`:CONST:REORDER:NOROOT(2)
        SECTION_GROUP _ZZN8RegisterILj1073874944ELj32E13ReadWriteModeN5GPIOC14GPIOCMODERBaseEJ10FieldValueI26GPIOC_MODER_MODER15_ValuesINS1_5MODERELj10ELj2ES0_S2_ES2_Lj1EvES3_IS4_IS5_Lj16ELj2ES0_S2_ES2_Lj1EvES3_IS4_IS5_Lj18ELj2ES0_S2_ES2_Lj1EvEEE3SetIS0_vEEvvE5value
        DATA
// __absolute unsigned int const value
_ZZN8RegisterILj1073874944ELj32E13ReadWriteModeN5GPIOC14GPIOCMODERBaseEJ10FieldValueI26GPIOC_MODER_MODER15_ValuesINS1_5MODERELj10ELj2ES0_S2_ES2_Lj1EvES3_IS4_IS5_Lj16ELj2ES0_S2_ES2_Lj1EvES3_IS4_IS5_Lj18ELj2ES0_S2_ES2_Lj1EvEEE3SetIS0_vEEvvE5value:
        DATA32
        DC32 328'704
//    4 
//    5 #include "gpioaregisters.hpp"  // for GPIOA
//    6 #include "gpiocregisters.hpp"  // for GPIOC
//    7 #include "usart2registers.hpp" // for Usart2 registers
//    8 
//    9 #include "AdcDmaDataProvider.hpp" // for AdcDmaDataProvider
//   10 #include "DigitalFilter.hpp" // for DigitalFilter

        SECTION `.data`:DATA:REORDER:NOROOT(0)
        DATA
// __absolute bool isFirstTime
`DigitalFilter<float, dt, rc>::FilterValue(float)::isFirstTime`:
        DATA8
        DC8 1
//   11 #include "Voltage.hpp" // for Voltage
//   12 #include "DataRepository.hpp" // for DataRepository
//   13 #include "LedController.hpp" // for LedController
//   14 #include "LedCalculator.hpp" // for LedCalculator
//   15 #include "Usart.hpp" // for Usart
//   16 #include "Formatter.hpp" // for Formatter
//   17 
//   18 #include "MeasurementTask.hpp" // for MeasurementTask
//   19 #include "UsartTask.hpp" // for UsartTask
//   20 

        SECTION `.data`:DATA:REORDER:NOROOT(2)
        DATA
//   21 std::uint32_t SystemCoreClock = 8'000'000U;
SystemCoreClock:
        DATA32
        DC32 8'000'000

        SECTION `.rodata`:CONST:REORDER:NOROOT(2)
        DATA
maxVoltage:
        DATA32
        DC32 0x4051'999a

        SECTION `.rodata`:CONST:REORDER:NOROOT(0)
        DATA
maxLedAmount:
        DATA8
        DC8 4

        SECTION `.text`:CODE:NOROOT(1)
          CFI Block cfiBlock0 Using cfiCommon0
          CFI Function __sti__routine
        THUMB
// static __intrinsic __vfp void __sti__routine()
__sti__routine:
        PUSH     {R1-R11,LR}    
          CFI R14 Frame(CFA, -4)
          CFI R11 Frame(CFA, -8)
          CFI R10 Frame(CFA, -12)
          CFI R9 Frame(CFA, -16)
          CFI R8 Frame(CFA, -20)
          CFI R7 Frame(CFA, -24)
          CFI R6 Frame(CFA, -28)
          CFI R5 Frame(CFA, -32)
          CFI R4 Frame(CFA, -36)
          CFI CFA R13+48
        LDR.N    R4,??DataTable6_4
        MOVS     R0,R4          
          CFI FunCall _ZN18AdcDmaDataProviderC1Ev
        BL       _ZN18AdcDmaDataProviderC1Ev
        LDR.N    R5,??DataTable6_5
        MOVS     R0,R5          
          CFI FunCall _ZN13DigitalFilterIfL_ZN29_INTERNAL_8_main_cpp_5d646a672dtEEL_ZNS0_2rcEEEC1Ev
        BL       _ZN13DigitalFilterIfL_ZN29_INTERNAL_8_main_cpp_5d646a672dtEEL_ZNS0_2rcEEEC1Ev
        LDR.N    R6,??DataTable6_6
        MOVS     R1,R4          
        MOVS     R0,R6          
          CFI FunCall _ZN7VoltageIL_ZN29_INTERNAL_8_main_cpp_5d646a6712maxAdcCountsEEL_ZNS0_12minAdcCountsEEL_ZNS0_10maxVoltageEEL_ZNS0_10minVoltageEEEC1ER16IRawDataProvider
        BL       _ZN7VoltageIL_ZN29_INTERNAL_8_main_cpp_5d646a6712maxAdcCountsEEL_ZNS0_12minAdcCountsEEL_ZNS0_10maxVoltageEEL_ZNS0_10minVoltageEEEC1ER16IRawDataProvider
        LDR.N    R7,??DataTable6_7
        MOVS     R0,R7          
          CFI FunCall _ZN14DataRepositoryC1Ev
        BL       _ZN14DataRepositoryC1Ev
        LDR.W    R8,??DataTable6_8
        LDR.N    R2,??DataTable6_9
        LDR.N    R1,??DataTable6_10
        MOV      R0,R8          
          CFI FunCall _ZN13LedCalculatorC1ERKhRKf
        BL       _ZN13LedCalculatorC1ERKhRKf
        LDR.W    R9,??DataTable6_11
        MOV      R0,R9          
          CFI FunCall _ZN13LedControllerC1Ev
        BL       _ZN13LedControllerC1Ev
        LDR.W    R10,??DataTable6_12
        MOV      R0,R10         
          CFI FunCall _ZN5UsartC1Ev
        BL       _ZN5UsartC1Ev  
        LDR.W    R11,??DataTable6_13
        MOV      R0,R11         
          CFI FunCall _ZN9FormatterC1Ev
        BL       _ZN9FormatterC1Ev
        ADDS     R0,R7,#+4      
        STR      R0,[SP, #+8]   
        STR      R9,[SP, #+4]   
        STR      R8,[SP, #+0]   
        MOVS     R3,R6          
        MOVS     R2,R5          
        MOVS     R1,R4          
        LDR.N    R0,??DataTable6_14
          CFI FunCall _ZN15MeasurementTaskC1ER16IRawDataProviderR14IDigitalFilterIfER8IVoltageR14ILedCalculatorR14ILedControllerR22IDataRepositoryUpdater
        BL       _ZN15MeasurementTaskC1ER16IRawDataProviderR14IDigitalFilterIfER8IVoltageR14ILedCalculatorR14ILedControllerR22IDataRepositoryUpdater
        MOV      R3,R11         
        MOV      R2,R10         
        MOVS     R1,R7          
        LDR.N    R0,??DataTable6_15
          CFI FunCall _ZN9UsartTaskC1ER23IDataRepositoryProviderR6IUsartR10IFormatter
        BL       _ZN9UsartTaskC1ER23IDataRepositoryProviderR6IUsartR10IFormatter
        POP      {R0-R2,R4-R11,PC}
          CFI EndBlock cfiBlock0

        SECTION `.text`:CODE:NOROOT(2)
          CFI Block cfiBlock1 Using cfiCommon0
          CFI Function _ZN13DigitalFilterIfL_ZN29_INTERNAL_8_main_cpp_5d646a672dtEEL_ZNS0_2rcEEEC1Ev
        THUMB
// static __vfp DigitalFilter<float, dt, rc>::DigitalFilter() noexcept
_ZN13DigitalFilterIfL_ZN29_INTERNAL_8_main_cpp_5d646a672dtEEL_ZNS0_2rcEEEC1Ev:
        PUSH     {R4,LR}        
          CFI R14 Frame(CFA, -4)
          CFI R4 Frame(CFA, -8)
          CFI CFA R13+8
        VPUSH    {D8}           
          CFI D8 Frame(CFA, -16)
          CFI CFA R13+16
        MOVS     R4,R0          
        MOVS     R0,R4          
          CFI FunCall _ZN14IDigitalFilterIfEC2Ev
        BL       _ZN14IDigitalFilterIfEC2Ev
        LDR.N    R0,??DataTable6_16
        STR      R0,[R4, #+0]   
        VLDR.W   S16,??DataTable6
        VMOV.F32 S0,S16         
          CFI FunCall expf
        BL       expf           
        VMOV.F32 S1,#1.0        
        VSUB.F32 S0,S1,S0       
        VSTR     S0,[R4, #+8]   
        MOVS     R0,R4          
        VPOP     {D8}           
          CFI D8 SameValue
          CFI CFA R13+8
        POP      {R4,PC}        
          CFI EndBlock cfiBlock1

        SECTION `.text`:CODE:NOROOT(1)
          CFI Block cfiBlock2 Using cfiCommon0
          CFI Function _ZN13DigitalFilterIfL_ZN29_INTERNAL_8_main_cpp_5d646a672dtEEL_ZNS0_2rcEEE11FilterValueEf
          CFI NoCalls
        THUMB
// static __vfp float DigitalFilter<float, dt, rc>::FilterValue(float)
_ZN13DigitalFilterIfL_ZN29_INTERNAL_8_main_cpp_5d646a672dtEEL_ZNS0_2rcEEE11FilterValueEf:
        VMOV.F32 S1,S0          
        LDR.N    R1,??DataTable6_17
        LDRB     R1,[R1, #+0]   
        CMP      R1,#+0         
        BEQ.N    ??FilterValue_0
        VSTR     S1,[R0, #+4]   
        VMOV.F32 S0,S1          
        B.N      ??FilterValue_1
??FilterValue_0:
        VLDR     S0,[R0, #+4]   
        VSUB.F32 S2,S1,S0       
        VLDR     S3,[R0, #+8]   
        VLDR     S0,[R0, #+4]   
        VMLA.F32 S0,S2,S3       
        VSTR     S0,[R0, #+4]   
??FilterValue_1:
        BX       LR             
          CFI EndBlock cfiBlock2

        SECTION `.text`:CODE:NOROOT(1)
          CFI Block cfiBlock3 Using cfiCommon0
          CFI Function _ZN7VoltageIL_ZN29_INTERNAL_8_main_cpp_5d646a6712maxAdcCountsEEL_ZNS0_12minAdcCountsEEL_ZNS0_10maxVoltageEEL_ZNS0_10minVoltageEEEC1ER16IRawDataProvider
        THUMB
// static __vfp Voltage<maxAdcCounts, minAdcCounts, maxVoltage, minVoltage>::Voltage(IRawDataProvider &)
_ZN7VoltageIL_ZN29_INTERNAL_8_main_cpp_5d646a6712maxAdcCountsEEL_ZNS0_12minAdcCountsEEL_ZNS0_10maxVoltageEEL_ZNS0_10minVoltageEEEC1ER16IRawDataProvider:
        PUSH     {R3-R5,LR}     
          CFI R14 Frame(CFA, -4)
          CFI R5 Frame(CFA, -8)
          CFI R4 Frame(CFA, -12)
          CFI CFA R13+16
        MOVS     R4,R0          
        MOVS     R5,R1          
        MOVS     R0,R4          
          CFI FunCall _ZN8IVoltageC2Ev
        BL       _ZN8IVoltageC2Ev
        LDR.N    R0,??DataTable6_18
        STR      R0,[R4, #+0]   
        STR      R5,[R4, #+4]   
        MOVS     R0,R4          
        POP      {R1,R4,R5,PC}  
          CFI EndBlock cfiBlock3

        SECTION `.text`:CODE:NOROOT(1)
          CFI Block cfiBlock4 Using cfiCommon0
          CFI Function _ZN7VoltageIL_ZN29_INTERNAL_8_main_cpp_5d646a6712maxAdcCountsEEL_ZNS0_12minAdcCountsEEL_ZNS0_10maxVoltageEEL_ZNS0_10minVoltageEEE7MeasureEv
        THUMB
// static __vfp float Voltage<maxAdcCounts, minAdcCounts, maxVoltage, minVoltage>::Measure()
_ZN7VoltageIL_ZN29_INTERNAL_8_main_cpp_5d646a6712maxAdcCountsEEL_ZNS0_12minAdcCountsEEL_ZNS0_10maxVoltageEEL_ZNS0_10minVoltageEEE7MeasureEv:
        PUSH     {R4,LR}        
          CFI R14 Frame(CFA, -4)
          CFI R4 Frame(CFA, -8)
          CFI CFA R13+8
        VPUSH    {D8}           
          CFI D8 Frame(CFA, -16)
          CFI CFA R13+16
        MOVS     R4,R0          
        MOVS     R0,R4          
          CFI FunCall _ZN7VoltageIL_ZN29_INTERNAL_8_main_cpp_5d646a6712maxAdcCountsEEL_ZNS0_12minAdcCountsEEL_ZNS0_10maxVoltageEEL_ZNS0_10minVoltageEEE13CalculateGainEv
        BL       _ZN7VoltageIL_ZN29_INTERNAL_8_main_cpp_5d646a6712maxAdcCountsEEL_ZNS0_12minAdcCountsEEL_ZNS0_10maxVoltageEEL_ZNS0_10minVoltageEEE13CalculateGainEv
        VMOV.F32 S16,S0         
        LDR      R0,[R4, #+4]   
        LDR      R1,[R4, #+4]   
        LDR      R1,[R1, #+0]   
        LDR      R1,[R1, #+0]   
          CFI IndirectCall
        BLX      R1             
        VMOV     S0,R0          
        VCVT.F32.U32 S17,S0         
        MOVS     R0,R4          
          CFI FunCall _ZN7VoltageIL_ZN29_INTERNAL_8_main_cpp_5d646a6712maxAdcCountsEEL_ZNS0_12minAdcCountsEEL_ZNS0_10maxVoltageEEL_ZNS0_10minVoltageEEE15CalculateOffsetEv
        BL       _ZN7VoltageIL_ZN29_INTERNAL_8_main_cpp_5d646a6712maxAdcCountsEEL_ZNS0_12minAdcCountsEEL_ZNS0_10maxVoltageEEL_ZNS0_10minVoltageEEE15CalculateOffsetEv
        VMLA.F32 S0,S17,S16     
        VPOP     {D8}           
          CFI D8 SameValue
          CFI CFA R13+8
        POP      {R4,PC}        
          CFI EndBlock cfiBlock4

        SECTION `.text`:CODE:NOROOT(2)
          CFI Block cfiBlock5 Using cfiCommon0
          CFI Function _ZN7VoltageIL_ZN29_INTERNAL_8_main_cpp_5d646a6712maxAdcCountsEEL_ZNS0_12minAdcCountsEEL_ZNS0_10maxVoltageEEL_ZNS0_10minVoltageEEE13CalculateGainEv
          CFI NoCalls
        THUMB
// static __vfp float Voltage<maxAdcCounts, minAdcCounts, maxVoltage, minVoltage>::CalculateGain()
_ZN7VoltageIL_ZN29_INTERNAL_8_main_cpp_5d646a6712maxAdcCountsEEL_ZNS0_12minAdcCountsEEL_ZNS0_10maxVoltageEEL_ZNS0_10minVoltageEEE13CalculateGainEv:
        VLDR.W   S0,??DataTable6_1
        BX       LR             
          CFI EndBlock cfiBlock5

        SECTION `.text`:CODE:NOROOT(2)
          CFI Block cfiBlock6 Using cfiCommon0
          CFI Function _ZN7VoltageIL_ZN29_INTERNAL_8_main_cpp_5d646a6712maxAdcCountsEEL_ZNS0_12minAdcCountsEEL_ZNS0_10maxVoltageEEL_ZNS0_10minVoltageEEE15CalculateOffsetEv
        THUMB
// static __vfp float Voltage<maxAdcCounts, minAdcCounts, maxVoltage, minVoltage>::CalculateOffset()
_ZN7VoltageIL_ZN29_INTERNAL_8_main_cpp_5d646a6712maxAdcCountsEEL_ZNS0_12minAdcCountsEEL_ZNS0_10maxVoltageEEL_ZNS0_10minVoltageEEE15CalculateOffsetEv:
        PUSH     {R4,LR}        
          CFI R14 Frame(CFA, -4)
          CFI R4 Frame(CFA, -8)
          CFI CFA R13+8
        MOVS     R4,R0          
        MOVS     R0,R4          
          CFI FunCall _ZN7VoltageIL_ZN29_INTERNAL_8_main_cpp_5d646a6712maxAdcCountsEEL_ZNS0_12minAdcCountsEEL_ZNS0_10maxVoltageEEL_ZNS0_10minVoltageEEE13CalculateGainEv
        BL       _ZN7VoltageIL_ZN29_INTERNAL_8_main_cpp_5d646a6712maxAdcCountsEEL_ZNS0_12minAdcCountsEEL_ZNS0_10maxVoltageEEL_ZNS0_10minVoltageEEE13CalculateGainEv
        VMOV.F32 S1,S0          
        VLDR.W   S2,??DataTable6_2
        VLDR.W   S0,??DataTable6_3
        VMLS.F32 S0,S1,S2       
        POP      {R4,PC}        
          CFI EndBlock cfiBlock6
//   22 
//   23 extern "C" {

        SECTION `.text`:CODE:NOROOT(1)
          CFI Block cfiBlock7 Using cfiCommon0
          CFI Function __low_level_init
        THUMB
//   24   int __low_level_init(void)
//   25   {
__low_level_init:
        PUSH     {R7,LR}        
          CFI R14 Frame(CFA, -4)
          CFI CFA R13+8
//   26     //Switch on internal 16 MHz oscillator
//   27     RCC::CR::HSEON::On::Set();
          CFI FunCall _ZN14FieldValueBaseI19RCC_CR_HSEON_ValuesIN3RCC2CRELj16ELj1E13ReadWriteModeNS1_9RCCCRBaseEES4_Lj1EE3SetIS3_vEEvv
        BL       _ZN14FieldValueBaseI19RCC_CR_HSEON_ValuesIN3RCC2CRELj16ELj1E13ReadWriteModeNS1_9RCCCRBaseEES4_Lj1EE3SetIS3_vEEvv
//   28     while (RCC::CR::HSERDY::NotReady::IsSet())
??__low_level_init_0:
          CFI FunCall _ZN14FieldValueBaseI20RCC_CR_HSERDY_ValuesIN3RCC2CRELj17ELj1E8ReadModeNS1_9RCCCRBaseEES4_Lj0EE5IsSetIS3_vEEbv
        BL       _ZN14FieldValueBaseI20RCC_CR_HSERDY_ValuesIN3RCC2CRELj17ELj1E8ReadModeNS1_9RCCCRBaseEES4_Lj0EE5IsSetIS3_vEEbv
        CMP      R0,#+0         
        BNE.N    ??__low_level_init_0
//   29     {
//   30 
//   31     }
//   32     //Switch system clock on internal oscillator
//   33     RCC::CFGR::SW::Hse::Set();
          CFI FunCall _ZN14FieldValueBaseI18RCC_CFGR_SW_ValuesIN3RCC4CFGRELj0ELj2E13ReadWriteModeNS1_11RCCCFGRBaseEES4_Lj1EE3SetIS3_vEEvv
        BL       _ZN14FieldValueBaseI18RCC_CFGR_SW_ValuesIN3RCC4CFGRELj0ELj2E13ReadWriteModeNS1_11RCCCFGRBaseEES4_Lj1EE3SetIS3_vEEvv
//   34     while (!RCC::CFGR::SWS::Hse::IsSet())
??__low_level_init_1:
          CFI FunCall _ZN14FieldValueBaseI19RCC_CFGR_SWS_ValuesIN3RCC4CFGRELj2ELj2E8ReadModeNS1_11RCCCFGRBaseEES4_Lj1EE5IsSetIS3_vEEbv
        BL       _ZN14FieldValueBaseI19RCC_CFGR_SWS_ValuesIN3RCC4CFGRELj2ELj2E8ReadModeNS1_11RCCCFGRBaseEES4_Lj1EE5IsSetIS3_vEEbv
        CMP      R0,#+0         
        BEQ.N    ??__low_level_init_1
//   35     {
//   36 
//   37     }
//   38     //Switch on clock on PortA and PortC
//   39     RCC::AHB1ENRPack<
//   40       RCC::AHB1ENR::GPIOCEN::Enable,
//   41       RCC::AHB1ENR::GPIOAEN::Enable
//   42         >::Set();
          CFI FunCall _ZN8RegisterILj1073887280ELj32E13ReadWriteModeN3RCC14RCCAHB1ENRBaseEJ10FieldValueI26RCC_AHB1ENR_GPIOCEN_ValuesINS1_7AHB1ENRELj2ELj1ES0_S2_ES2_Lj1EvES3_I26RCC_AHB1ENR_GPIOAEN_ValuesIS5_Lj0ELj1ES0_S2_ES2_Lj1EvEEE3SetIS0_vEEvv
        BL       _ZN8RegisterILj1073887280ELj32E13ReadWriteModeN3RCC14RCCAHB1ENRBaseEJ10FieldValueI26RCC_AHB1ENR_GPIOCEN_ValuesINS1_7AHB1ENRELj2ELj1ES0_S2_ES2_Lj1EvES3_I26RCC_AHB1ENR_GPIOAEN_ValuesIS5_Lj0ELj1ES0_S2_ES2_Lj1EvEEE3SetIS0_vEEvv
//   43 
//   44     RCC::APB2ENR::SYSCFGEN::Enable::Set();
          CFI FunCall _ZN14FieldValueBaseI25RCC_AHB1ENR_DMA2EN_ValuesIN3RCC7APB2ENRELj14ELj1E13ReadWriteModeNS1_14RCCAPB2ENRBaseEES4_Lj1EE3SetIS3_vEEvv
        BL       _ZN14FieldValueBaseI25RCC_AHB1ENR_DMA2EN_ValuesIN3RCC7APB2ENRELj14ELj1E13ReadWriteModeNS1_14RCCAPB2ENRBaseEES4_Lj1EE3SetIS3_vEEvv
//   45 
//   46     //LED1 on PortA.5, set PortA.5 as output
//   47     GPIOA::MODER::MODER5::Output::Set();
          CFI FunCall _ZN14FieldValueBaseI26GPIOA_MODER_MODER15_ValuesIN5GPIOA5MODERELj10ELj2E13ReadWriteModeNS1_14GPIOAMODERBaseEES4_Lj1EE3SetIS3_vEEvv
        BL       _ZN14FieldValueBaseI26GPIOA_MODER_MODER15_ValuesIN5GPIOA5MODERELj10ELj2E13ReadWriteModeNS1_14GPIOAMODERBaseEES4_Lj1EE3SetIS3_vEEvv
//   48 
//   49     /* LED2 on PortC.9, LED3 on PortC.8, LED4 on PortC.5 so set PortC.5,8,9 as output */
//   50     GPIOC::MODERPack<
//   51       GPIOC::MODER::MODER5::Output,
//   52       GPIOC::MODER::MODER8::Output,
//   53       GPIOC::MODER::MODER9::Output
//   54         >::Set();
          CFI FunCall _ZN8RegisterILj1073874944ELj32E13ReadWriteModeN5GPIOC14GPIOCMODERBaseEJ10FieldValueI26GPIOC_MODER_MODER15_ValuesINS1_5MODERELj10ELj2ES0_S2_ES2_Lj1EvES3_IS4_IS5_Lj16ELj2ES0_S2_ES2_Lj1EvES3_IS4_IS5_Lj18ELj2ES0_S2_ES2_Lj1EvEEE3SetIS0_vEEvv
        BL       _ZN8RegisterILj1073874944ELj32E13ReadWriteModeN5GPIOC14GPIOCMODERBaseEJ10FieldValueI26GPIOC_MODER_MODER15_ValuesINS1_5MODERELj10ELj2ES0_S2_ES2_Lj1EvES3_IS4_IS5_Lj16ELj2ES0_S2_ES2_Lj1EvES3_IS4_IS5_Lj18ELj2ES0_S2_ES2_Lj1EvEEE3SetIS0_vEEvv
//   55     // Potentiometer on Port A0
//   56     GPIOA::MODER::MODER0::Analog::Set();
          CFI FunCall _ZN14FieldValueBaseI26GPIOA_MODER_MODER15_ValuesIN5GPIOA5MODERELj0ELj2E13ReadWriteModeNS1_14GPIOAMODERBaseEES4_Lj3EE3SetIS3_vEEvv
        BL       _ZN14FieldValueBaseI26GPIOA_MODER_MODER15_ValuesIN5GPIOA5MODERELj0ELj2E13ReadWriteModeNS1_14GPIOAMODERBaseEES4_Lj3EE3SetIS3_vEEvv
//   57     // RCC on ADC
//   58     RCC::APB2ENR::ADC1EN::Enable::Set();
          CFI FunCall _ZN14FieldValueBaseI25RCC_AHB1ENR_DMA2EN_ValuesIN3RCC7APB2ENRELj8ELj1E13ReadWriteModeNS1_14RCCAPB2ENRBaseEES4_Lj1EE3SetIS3_vEEvv
        BL       _ZN14FieldValueBaseI25RCC_AHB1ENR_DMA2EN_ValuesIN3RCC7APB2ENRELj8ELj1E13ReadWriteModeNS1_14RCCAPB2ENRBaseEES4_Lj1EE3SetIS3_vEEvv
//   59     // RCC on DMA
//   60     RCC::AHB1ENR::DMA2EN::Enable::Set();
          CFI FunCall _ZN14FieldValueBaseI25RCC_AHB1ENR_DMA2EN_ValuesIN3RCC7AHB1ENRELj22ELj1E13ReadWriteModeNS1_14RCCAHB1ENRBaseEES4_Lj1EE3SetIS3_vEEvv
        BL       _ZN14FieldValueBaseI25RCC_AHB1ENR_DMA2EN_ValuesIN3RCC7AHB1ENRELj22ELj1E13ReadWriteModeNS1_14RCCAHB1ENRBaseEES4_Lj1EE3SetIS3_vEEvv
//   61     // RCC on USART2
//   62     RCC::APB1ENR::USART2EN::Enable::Set();
          CFI FunCall _ZN14FieldValueBaseI25RCC_AHB1ENR_DMA2EN_ValuesIN3RCC7APB1ENRELj17ELj1E13ReadWriteModeNS1_14RCCAPB1ENRBaseEES4_Lj1EE3SetIS3_vEEvv
        BL       _ZN14FieldValueBaseI25RCC_AHB1ENR_DMA2EN_ValuesIN3RCC7APB1ENRELj17ELj1E13ReadWriteModeNS1_14RCCAPB1ENRBaseEES4_Lj1EE3SetIS3_vEEvv
//   63     return 1;
        MOVS     R0,#+1         
        POP      {R1,PC}        
//   64   }
          CFI EndBlock cfiBlock7
//   65 }
//   66 
//   67 constexpr auto dt = 0.1f;
//   68 constexpr auto rc = 5.0f;
//   69 constexpr auto minAdcCounts = 2U;
//   70 constexpr auto maxAdcCounts = 4093U;
//   71 constexpr auto minVoltage = 0.0001f;
//   72 constexpr auto maxVoltage = 3.275f;
//   73 constexpr uint8_t maxLedAmount = 4U;
//   74 

        SECTION `.bss`:DATA:REORDER:NOROOT(2)
        DATA
//   75 AdcDmaDataProvider adc;
`adc`:
        DS8 8

        SECTION `.bss`:DATA:REORDER:NOROOT(2)
        DATA
//   76 DigitalFilter<float, dt, rc> digitalFilter;
digitalFilter:
        DS8 12

        SECTION `.bss`:DATA:REORDER:NOROOT(2)
        DATA
//   77 Voltage<maxAdcCounts, minAdcCounts, maxVoltage, minVoltage> voltage(static_cast<IRawDataProvider&>(adc));
voltage:
        DS8 8

        SECTION `.bss`:DATA:REORDER:NOROOT(2)
        DATA
//   78 DataRepository dataReposiitory;
dataReposiitory:
        DS8 16

        SECTION `.bss`:DATA:REORDER:NOROOT(2)
        DATA
//   79 LedCalculator ledCalculator(maxLedAmount, maxVoltage);
ledCalculator:
        DS8 12

        SECTION `.bss`:DATA:REORDER:NOROOT(2)
        DATA
//   80 LedController ledController;
ledController:
        DS8 4

        SECTION `.bss`:DATA:REORDER:NOROOT(2)
        DATA
//   81 Usart usart;
usart:
        DS8 4

        SECTION `.bss`:DATA:REORDER:NOROOT(2)
        DATA
//   82 Formatter formatter;
formatter:
        DS8 4
//   83 

        SECTION `.bss`:DATA:REORDER:NOROOT(2)
        DATA
//   84 MeasurementTask measurementTask(adc, digitalFilter, voltage, ledCalculator, ledController, dataReposiitory);
measurementTask:
        DS8 2'164

        SECTION `.bss`:DATA:REORDER:NOROOT(2)
        DATA
//   85 UsartTask usartTask(dataReposiitory, usart, formatter);
usartTask:
        DS8 2'152
//   86 

        SECTION `.text`:CODE:NOROOT(1)
          CFI Block cfiBlock8 Using cfiCommon0
          CFI Function main
        THUMB
//   87 int main()
//   88 {
main:
        PUSH     {R7,LR}        
          CFI R14 Frame(CFA, -4)
          CFI CFA R13+8
//   89   adc.ConfigAdc();
        LDR.N    R0,??DataTable6_4
          CFI FunCall _ZN18AdcDmaDataProvider9ConfigAdcEv
        BL       _ZN18AdcDmaDataProvider9ConfigAdcEv
//   90   usart.ConfigUsart();
        LDR.N    R0,??DataTable6_12
          CFI FunCall _ZN5Usart11ConfigUsartEv
        BL       _ZN5Usart11ConfigUsartEv
//   91   USART2::CR1::UE::Enable::Set();
          CFI FunCall _ZN14FieldValueBaseI20USART2_CR1_UE_ValuesIN6USART23CR1ELj13ELj1E13ReadWriteModeNS1_13USART2CR1BaseEES4_Lj1EE3SetIS3_vEEvv
        BL       _ZN14FieldValueBaseI20USART2_CR1_UE_ValuesIN6USART23CR1ELj13ELj1E13ReadWriteModeNS1_13USART2CR1BaseEES4_Lj1EE3SetIS3_vEEvv
//   92   USART2::CR1::TE::Enable::Set();
          CFI FunCall _ZN14FieldValueBaseI20USART2_CR1_TE_ValuesIN6USART23CR1ELj3ELj1E13ReadWriteModeNS1_13USART2CR1BaseEES4_Lj1EE3SetIS3_vEEvv
        BL       _ZN14FieldValueBaseI20USART2_CR1_TE_ValuesIN6USART23CR1ELj3ELj1E13ReadWriteModeNS1_13USART2CR1BaseEES4_Lj1EE3SetIS3_vEEvv
//   93   using namespace OsWrapper;
//   94   Rtos::CreateThread(measurementTask, "MeasurementTask", ThreadPriority::priorityMax);
        MOVS     R2,#+255       
        LDR.N    R1,??DataTable6_19
        LDR.N    R0,??DataTable6_14
          CFI FunCall _ZN9OsWrapper4Rtos12CreateThreadI15MeasurementTaskEEvRT_PKcNS_14ThreadPriorityE
        BL       _ZN9OsWrapper4Rtos12CreateThreadI15MeasurementTaskEEvRT_PKcNS_14ThreadPriorityE
//   95   Rtos::CreateThread(usartTask, "UsartTask", ThreadPriority::lowest);
        MOVS     R2,#+10        
        LDR.N    R1,??DataTable6_20
        LDR.N    R0,??DataTable6_15
          CFI FunCall _ZN9OsWrapper4Rtos12CreateThreadI9UsartTaskEEvRT_PKcNS_14ThreadPriorityE
        BL       _ZN9OsWrapper4Rtos12CreateThreadI9UsartTaskEEvRT_PKcNS_14ThreadPriorityE
//   96   Rtos::Start();
          CFI FunCall _ZN9OsWrapper4Rtos5StartEv
        BL       _ZN9OsWrapper4Rtos5StartEv
//   97   return 0;
        MOVS     R0,#+0         
        POP      {R1,PC}        
//   98 }
          CFI EndBlock cfiBlock8

        SECTION `.text`:CODE:NOROOT(2)
        SECTION_TYPE SHT_PROGBITS, 0
        DATA
??DataTable6:
        DATA32
        DC32     0xbca3d70a     

        SECTION `.text`:CODE:NOROOT(2)
        SECTION_TYPE SHT_PROGBITS, 0
        DATA
??DataTable6_1:
        DATA32
        DC32     0x3a51d98b     

        SECTION `.text`:CODE:NOROOT(2)
        SECTION_TYPE SHT_PROGBITS, 0
        DATA
??DataTable6_2:
        DATA32
        DC32     0x457fd000     

        SECTION `.text`:CODE:NOROOT(2)
        SECTION_TYPE SHT_PROGBITS, 0
        DATA
??DataTable6_3:
        DATA32
        DC32     0x4051999a     

        SECTION `.text`:CODE:NOROOT(2)
        SECTION_TYPE SHT_PROGBITS, 0
        DATA
??DataTable6_4:
        DATA32
        DC32     `adc`          

        SECTION `.text`:CODE:NOROOT(2)
        SECTION_TYPE SHT_PROGBITS, 0
        DATA
??DataTable6_5:
        DATA32
        DC32     digitalFilter  

        SECTION `.text`:CODE:NOROOT(2)
        SECTION_TYPE SHT_PROGBITS, 0
        DATA
??DataTable6_6:
        DATA32
        DC32     voltage        

        SECTION `.text`:CODE:NOROOT(2)
        SECTION_TYPE SHT_PROGBITS, 0
        DATA
??DataTable6_7:
        DATA32
        DC32     dataReposiitory

        SECTION `.text`:CODE:NOROOT(2)
        SECTION_TYPE SHT_PROGBITS, 0
        DATA
??DataTable6_8:
        DATA32
        DC32     ledCalculator  

        SECTION `.text`:CODE:NOROOT(2)
        SECTION_TYPE SHT_PROGBITS, 0
        DATA
??DataTable6_9:
        DATA32
        DC32     maxVoltage     

        SECTION `.text`:CODE:NOROOT(2)
        SECTION_TYPE SHT_PROGBITS, 0
        DATA
??DataTable6_10:
        DATA32
        DC32     maxLedAmount   

        SECTION `.text`:CODE:NOROOT(2)
        SECTION_TYPE SHT_PROGBITS, 0
        DATA
??DataTable6_11:
        DATA32
        DC32     ledController  

        SECTION `.text`:CODE:NOROOT(2)
        SECTION_TYPE SHT_PROGBITS, 0
        DATA
??DataTable6_12:
        DATA32
        DC32     usart          

        SECTION `.text`:CODE:NOROOT(2)
        SECTION_TYPE SHT_PROGBITS, 0
        DATA
??DataTable6_13:
        DATA32
        DC32     formatter      

        SECTION `.text`:CODE:NOROOT(2)
        SECTION_TYPE SHT_PROGBITS, 0
        DATA
??DataTable6_14:
        DATA32
        DC32     measurementTask

        SECTION `.text`:CODE:NOROOT(2)
        SECTION_TYPE SHT_PROGBITS, 0
        DATA
??DataTable6_15:
        DATA32
        DC32     usartTask      

        SECTION `.text`:CODE:NOROOT(2)
        SECTION_TYPE SHT_PROGBITS, 0
        DATA
??DataTable6_16:
        DATA32
        DC32     _ZTV13DigitalFilterIfL_ZN29_INTERNAL_8_main_cpp_5d646a672dtEEL_ZNS0_2rcEEE+0x8

        SECTION `.text`:CODE:NOROOT(2)
        SECTION_TYPE SHT_PROGBITS, 0
        DATA
??DataTable6_17:
        DATA32
        DC32     `DigitalFilter<float, dt, rc>::FilterValue(float)::isFirstTime`

        SECTION `.text`:CODE:NOROOT(2)
        SECTION_TYPE SHT_PROGBITS, 0
        DATA
??DataTable6_18:
        DATA32
        DC32     _ZTV7VoltageIL_ZN29_INTERNAL_8_main_cpp_5d646a6712maxAdcCountsEEL_ZNS0_12minAdcCountsEEL_ZNS0_10maxVoltageEEL_ZNS0_10minVoltageEEE+0x8

        SECTION `.text`:CODE:NOROOT(2)
        SECTION_TYPE SHT_PROGBITS, 0
        DATA
??DataTable6_19:
        DATA32
        DC32     ?_0            

        SECTION `.text`:CODE:NOROOT(2)
        SECTION_TYPE SHT_PROGBITS, 0
        DATA
??DataTable6_20:
        DATA32
        DC32     ?_1            

        SECTION `.text`:CODE:REORDER:NOROOT(1)
        SECTION_GROUP _ZNSt5arrayIjLj512EE4dataEv
          CFI Block cfiBlock9 Using cfiCommon0
          CFI Function _ZNSt5arrayIjLj512EE4dataEv
          CFI NoCalls
        THUMB
// __vfp uint32_t *std::array<uint32_t, 512U>::data() noexcept
_ZNSt5arrayIjLj512EE4dataEv:
        BX       LR             
          CFI EndBlock cfiBlock9

        SECTION `.text`:CODE:REORDER:NOROOT(2)
        SECTION_GROUP _ZN9OsWrapper11RtosWrapper13wCreateThreadINS_4RtosE15MeasurementTaskEEvRT0_PKcNS_14ThreadPriorityEtPj
          CFI Block cfiBlock10 Using cfiCommon0
          CFI Function _ZN9OsWrapper11RtosWrapper13wCreateThreadINS_4RtosE15MeasurementTaskEEvRT0_PKcNS_14ThreadPriorityEtPj
        THUMB
// __vfp void OsWrapper::RtosWrapper::wCreateThread<OsWrapper::Rtos, MeasurementTask>(MeasurementTask &, char const *, OsWrapper::ThreadPriority, uint16_t, uint32_t *)
_ZN9OsWrapper11RtosWrapper13wCreateThreadINS_4RtosE15MeasurementTaskEEvRT0_PKcNS_14ThreadPriorityEtPj:
        PUSH     {R0-R8,LR}     
          CFI R14 Frame(CFA, -4)
          CFI R8 Frame(CFA, -8)
          CFI R7 Frame(CFA, -12)
          CFI R6 Frame(CFA, -16)
          CFI R5 Frame(CFA, -20)
          CFI R4 Frame(CFA, -24)
          CFI CFA R13+40
        MOVS     R5,R0          
        MOVS     R6,R1          
        MOVS     R7,R2          
        MOV      R8,R3          
        LDR      R4,[SP, #+40]  
        CMP      R4,#+0         
        BEQ.N    ??wCreateThread_2
        ADDS     R0,R5,#+4      
        STR      R0,[SP, #+8]   
        STR      R4,[SP, #+4]   
        MOVS     R0,R7          
        UXTB     R0,R0          
        STR      R0,[SP, #+0]   
        MOVS     R3,R5          
        MOV      R2,R8          
        UXTH     R2,R2          
        MOVS     R1,R6          
        LDR.N    R0,??wCreateThread_0
          CFI FunCall xTaskCreateStatic
        BL       xTaskCreateStatic
        STR      R0,[R5, #+84]  
??wCreateThread_2:
        POP      {R0-R8,PC}     
        Nop                     
        DATA
??wCreateThread_0:
        DATA32
        DC32     _ZN9OsWrapper4Rtos3RunEPv
          CFI EndBlock cfiBlock10

        SECTION `.text`:CODE:REORDER:NOROOT(2)
        SECTION_GROUP _ZN9OsWrapper11RtosWrapper13wCreateThreadINS_4RtosE9UsartTaskEEvRT0_PKcNS_14ThreadPriorityEtPj
          CFI Block cfiBlock11 Using cfiCommon0
          CFI Function _ZN9OsWrapper11RtosWrapper13wCreateThreadINS_4RtosE9UsartTaskEEvRT0_PKcNS_14ThreadPriorityEtPj
        THUMB
// __vfp void OsWrapper::RtosWrapper::wCreateThread<OsWrapper::Rtos, UsartTask>(UsartTask &, char const *, OsWrapper::ThreadPriority, uint16_t, uint32_t *)
_ZN9OsWrapper11RtosWrapper13wCreateThreadINS_4RtosE9UsartTaskEEvRT0_PKcNS_14ThreadPriorityEtPj:
        PUSH     {R0-R8,LR}     
          CFI R14 Frame(CFA, -4)
          CFI R8 Frame(CFA, -8)
          CFI R7 Frame(CFA, -12)
          CFI R6 Frame(CFA, -16)
          CFI R5 Frame(CFA, -20)
          CFI R4 Frame(CFA, -24)
          CFI CFA R13+40
        MOVS     R5,R0          
        MOVS     R6,R1          
        MOVS     R7,R2          
        MOV      R8,R3          
        LDR      R4,[SP, #+40]  
        CMP      R4,#+0         
        BEQ.N    ??wCreateThread_3
        ADDS     R0,R5,#+4      
        STR      R0,[SP, #+8]   
        STR      R4,[SP, #+4]   
        MOVS     R0,R7          
        UXTB     R0,R0          
        STR      R0,[SP, #+0]   
        MOVS     R3,R5          
        MOV      R2,R8          
        UXTH     R2,R2          
        MOVS     R1,R6          
        LDR.N    R0,??wCreateThread_1
          CFI FunCall xTaskCreateStatic
        BL       xTaskCreateStatic
        STR      R0,[R5, #+84]  
??wCreateThread_3:
        POP      {R0-R8,PC}     
        Nop                     
        DATA
??wCreateThread_1:
        DATA32
        DC32     _ZN9OsWrapper4Rtos3RunEPv
          CFI EndBlock cfiBlock11

        SECTION `.text`:CODE:REORDER:NOROOT(1)
        SECTION_GROUP _ZN9OsWrapper11RtosWrapper6wStartEv
          CFI Block cfiBlock12 Using cfiCommon0
          CFI Function _ZN9OsWrapper11RtosWrapper6wStartEv
        THUMB
// __vfp void OsWrapper::RtosWrapper::wStart()
_ZN9OsWrapper11RtosWrapper6wStartEv:
        PUSH     {R7,LR}        
          CFI R14 Frame(CFA, -4)
          CFI CFA R13+8
          CFI FunCall vTaskStartScheduler
        BL       vTaskStartScheduler
        POP      {R0,PC}        
          CFI EndBlock cfiBlock12

        SECTION `.text`:CODE:REORDER:NOROOT(1)
        SECTION_GROUP _ZN9OsWrapper11RtosWrapper9wGetTicksEv
          CFI Block cfiBlock13 Using cfiCommon0
          CFI Function _ZN9OsWrapper11RtosWrapper9wGetTicksEv
        THUMB
// __vfp uint32_t OsWrapper::RtosWrapper::wGetTicks()
_ZN9OsWrapper11RtosWrapper9wGetTicksEv:
        PUSH     {R7,LR}        
          CFI R14 Frame(CFA, -4)
          CFI CFA R13+8
          CFI FunCall xTaskGetTickCount
        BL       xTaskGetTickCount
        POP      {R1,PC}        
          CFI EndBlock cfiBlock13

        SECTION `.text`:CODE:REORDER:NOROOT(1)
        SECTION_GROUP _ZN9OsWrapper7IThread3RunEv
          CFI Block cfiBlock14 Using cfiCommon0
          CFI Function _ZN9OsWrapper7IThread3RunEv
        THUMB
// __vfp void OsWrapper::IThread::Run()
_ZN9OsWrapper7IThread3RunEv:
        PUSH     {R4,LR}        
          CFI R14 Frame(CFA, -4)
          CFI R4 Frame(CFA, -8)
          CFI CFA R13+8
        MOVS     R4,R0          
          CFI FunCall _ZN9OsWrapper11RtosWrapper9wGetTicksEv
        BL       _ZN9OsWrapper11RtosWrapper9wGetTicksEv
        STR      R0,[R4, #+88]  
        MOVS     R0,R4          
        LDR      R1,[R4, #+0]   
        LDR      R1,[R1, #+0]   
          CFI IndirectCall
        BLX      R1             
        POP      {R4,PC}        
          CFI EndBlock cfiBlock14

        SECTION `.text`:CODE:REORDER:NOROOT(1)
        SECTION_GROUP _ZN9OsWrapper4Rtos12CreateThreadI15MeasurementTaskEEvRT_PKcNS_14ThreadPriorityE
          CFI Block cfiBlock15 Using cfiCommon0
          CFI Function _ZN9OsWrapper4Rtos12CreateThreadI15MeasurementTaskEEvRT_PKcNS_14ThreadPriorityE
        THUMB
// __vfp void OsWrapper::Rtos::CreateThread<MeasurementTask>(MeasurementTask &, char const *, OsWrapper::ThreadPriority)
_ZN9OsWrapper4Rtos12CreateThreadI15MeasurementTaskEEvRT_PKcNS_14ThreadPriorityE:
        PUSH     {R2-R6,LR}     
          CFI R14 Frame(CFA, -4)
          CFI R6 Frame(CFA, -8)
          CFI R5 Frame(CFA, -12)
          CFI R4 Frame(CFA, -16)
          CFI CFA R13+24
        MOVS     R4,R0          
        MOVS     R5,R1          
        MOVS     R6,R2          
        ADDS     R0,R4,#+92     
          CFI FunCall _ZNSt5arrayIjLj512EE4dataEv
        BL       _ZNSt5arrayIjLj512EE4dataEv
        STR      R0,[SP, #+0]   
        MOV      R3,#+512       
        MOVS     R2,R6          
        UXTB     R2,R2          
        MOVS     R1,R5          
        MOVS     R0,R4          
          CFI FunCall _ZN9OsWrapper11RtosWrapper13wCreateThreadINS_4RtosE15MeasurementTaskEEvRT0_PKcNS_14ThreadPriorityEtPj
        BL       _ZN9OsWrapper11RtosWrapper13wCreateThreadINS_4RtosE15MeasurementTaskEEvRT0_PKcNS_14ThreadPriorityEtPj
        POP      {R0,R1,R4-R6,PC}
          CFI EndBlock cfiBlock15

        SECTION `.text`:CODE:REORDER:NOROOT(1)
        SECTION_GROUP _ZN9OsWrapper4Rtos12CreateThreadI9UsartTaskEEvRT_PKcNS_14ThreadPriorityE
          CFI Block cfiBlock16 Using cfiCommon0
          CFI Function _ZN9OsWrapper4Rtos12CreateThreadI9UsartTaskEEvRT_PKcNS_14ThreadPriorityE
        THUMB
// __vfp void OsWrapper::Rtos::CreateThread<UsartTask>(UsartTask &, char const *, OsWrapper::ThreadPriority)
_ZN9OsWrapper4Rtos12CreateThreadI9UsartTaskEEvRT_PKcNS_14ThreadPriorityE:
        PUSH     {R2-R6,LR}     
          CFI R14 Frame(CFA, -4)
          CFI R6 Frame(CFA, -8)
          CFI R5 Frame(CFA, -12)
          CFI R4 Frame(CFA, -16)
          CFI CFA R13+24
        MOVS     R4,R0          
        MOVS     R5,R1          
        MOVS     R6,R2          
        ADDS     R0,R4,#+92     
          CFI FunCall _ZNSt5arrayIjLj512EE4dataEv
        BL       _ZNSt5arrayIjLj512EE4dataEv
        STR      R0,[SP, #+0]   
        MOV      R3,#+512       
        MOVS     R2,R6          
        UXTB     R2,R2          
        MOVS     R1,R5          
        MOVS     R0,R4          
          CFI FunCall _ZN9OsWrapper11RtosWrapper13wCreateThreadINS_4RtosE9UsartTaskEEvRT0_PKcNS_14ThreadPriorityEtPj
        BL       _ZN9OsWrapper11RtosWrapper13wCreateThreadINS_4RtosE9UsartTaskEEvRT0_PKcNS_14ThreadPriorityEtPj
        POP      {R0,R1,R4-R6,PC}
          CFI EndBlock cfiBlock16

        SECTION `.text`:CODE:REORDER:NOROOT(1)
        SECTION_GROUP _ZN9OsWrapper4Rtos5StartEv
          CFI Block cfiBlock17 Using cfiCommon0
          CFI Function _ZN9OsWrapper4Rtos5StartEv
        THUMB
// __vfp void OsWrapper::Rtos::Start()
_ZN9OsWrapper4Rtos5StartEv:
        PUSH     {R7,LR}        
          CFI R14 Frame(CFA, -4)
          CFI CFA R13+8
          CFI FunCall _ZN9OsWrapper11RtosWrapper6wStartEv
        BL       _ZN9OsWrapper11RtosWrapper6wStartEv
        POP      {R0,PC}        
          CFI EndBlock cfiBlock17

        SECTION `.text`:CODE:REORDER:NOROOT(1)
        SECTION_GROUP _ZN9OsWrapper4Rtos3RunEPv
          CFI Block cfiBlock18 Using cfiCommon0
          CFI Function _ZN9OsWrapper4Rtos3RunEPv
        THUMB
// __vfp void OsWrapper::Rtos::Run(void *)
_ZN9OsWrapper4Rtos3RunEPv:
        PUSH     {R4,LR}        
          CFI R14 Frame(CFA, -4)
          CFI R4 Frame(CFA, -8)
          CFI CFA R13+8
        MOVS     R4,R0          
        MOVS     R0,R4          
          CFI FunCall _ZN9OsWrapper7IThread3RunEv
        BL       _ZN9OsWrapper7IThread3RunEv
        POP      {R4,PC}        
          CFI EndBlock cfiBlock18

        SECTION `.text`:CODE:REORDER:NOROOT(2)
        SECTION_GROUP _ZN14FieldValueBaseI19RCC_CR_HSEON_ValuesIN3RCC2CRELj16ELj1E13ReadWriteModeNS1_9RCCCRBaseEES4_Lj1EE3SetIS3_vEEvv
          CFI Block cfiBlock19 Using cfiCommon0
          CFI Function _ZN14FieldValueBaseI19RCC_CR_HSEON_ValuesIN3RCC2CRELj16ELj1E13ReadWriteModeNS1_9RCCCRBaseEES4_Lj1EE3SetIS3_vEEvv
          CFI NoCalls
        THUMB
// __vfp void FieldValueBase<RCC_CR_HSEON_Values<RCC::CR, 16U, 1U, ReadWriteMode, RCC::RCCCRBase>, RCC::RCCCRBase, 1U>::Set<ReadWriteMode, void>()
_ZN14FieldValueBaseI19RCC_CR_HSEON_ValuesIN3RCC2CRELj16ELj1E13ReadWriteModeNS1_9RCCCRBaseEES4_Lj1EE3SetIS3_vEEvv:
        LDR.N    R1,??Set_0     
        LDR      R0,[R1, #+0]   
        BICS     R0,R0,#0x10000 
        ORRS     R0,R0,#0x10000 
        STR      R0,[R1, #+0]   
        BX       LR             
        DATA
??Set_0:
        DATA32
        DC32     0x40023800     
          CFI EndBlock cfiBlock19

        SECTION `.text`:CODE:REORDER:NOROOT(2)
        SECTION_GROUP _ZN14FieldValueBaseI18RCC_CFGR_SW_ValuesIN3RCC4CFGRELj0ELj2E13ReadWriteModeNS1_11RCCCFGRBaseEES4_Lj1EE3SetIS3_vEEvv
          CFI Block cfiBlock20 Using cfiCommon0
          CFI Function _ZN14FieldValueBaseI18RCC_CFGR_SW_ValuesIN3RCC4CFGRELj0ELj2E13ReadWriteModeNS1_11RCCCFGRBaseEES4_Lj1EE3SetIS3_vEEvv
          CFI NoCalls
        THUMB
// __vfp void FieldValueBase<RCC_CFGR_SW_Values<RCC::CFGR, 0U, 2U, ReadWriteMode, RCC::RCCCFGRBase>, RCC::RCCCFGRBase, 1U>::Set<ReadWriteMode, void>()
_ZN14FieldValueBaseI18RCC_CFGR_SW_ValuesIN3RCC4CFGRELj0ELj2E13ReadWriteModeNS1_11RCCCFGRBaseEES4_Lj1EE3SetIS3_vEEvv:
        LDR.N    R1,??Set_1     
        LDR      R0,[R1, #+0]   
        LSRS     R0,R0,#+2      
        LSLS     R0,R0,#+2      
        ORRS     R0,R0,#0x1     
        STR      R0,[R1, #+0]   
        BX       LR             
        DATA
??Set_1:
        DATA32
        DC32     0x40023808     
          CFI EndBlock cfiBlock20

        SECTION `.text`:CODE:REORDER:NOROOT(2)
        SECTION_GROUP _ZN14FieldValueBaseI25RCC_AHB1ENR_DMA2EN_ValuesIN3RCC7APB2ENRELj14ELj1E13ReadWriteModeNS1_14RCCAPB2ENRBaseEES4_Lj1EE3SetIS3_vEEvv
          CFI Block cfiBlock21 Using cfiCommon0
          CFI Function _ZN14FieldValueBaseI25RCC_AHB1ENR_DMA2EN_ValuesIN3RCC7APB2ENRELj14ELj1E13ReadWriteModeNS1_14RCCAPB2ENRBaseEES4_Lj1EE3SetIS3_vEEvv
          CFI NoCalls
        THUMB
// __vfp void FieldValueBase<RCC_AHB1ENR_DMA2EN_Values<RCC::APB2ENR, 14U, 1U, ReadWriteMode, RCC::RCCAPB2ENRBase>, RCC::RCCAPB2ENRBase, 1U>::Set<ReadWriteMode, void>()
_ZN14FieldValueBaseI25RCC_AHB1ENR_DMA2EN_ValuesIN3RCC7APB2ENRELj14ELj1E13ReadWriteModeNS1_14RCCAPB2ENRBaseEES4_Lj1EE3SetIS3_vEEvv:
        LDR.N    R1,??Set_2     
        LDR      R0,[R1, #+0]   
        BICS     R0,R0,#0x4000  
        ORRS     R0,R0,#0x4000  
        STR      R0,[R1, #+0]   
        BX       LR             
        DATA
??Set_2:
        DATA32
        DC32     0x40023844     
          CFI EndBlock cfiBlock21

        SECTION `.text`:CODE:REORDER:NOROOT(2)
        SECTION_GROUP _ZN14FieldValueBaseI26GPIOA_MODER_MODER15_ValuesIN5GPIOA5MODERELj10ELj2E13ReadWriteModeNS1_14GPIOAMODERBaseEES4_Lj1EE3SetIS3_vEEvv
          CFI Block cfiBlock22 Using cfiCommon0
          CFI Function _ZN14FieldValueBaseI26GPIOA_MODER_MODER15_ValuesIN5GPIOA5MODERELj10ELj2E13ReadWriteModeNS1_14GPIOAMODERBaseEES4_Lj1EE3SetIS3_vEEvv
          CFI NoCalls
        THUMB
// __vfp void FieldValueBase<GPIOA_MODER_MODER15_Values<GPIOA::MODER, 10U, 2U, ReadWriteMode, GPIOA::GPIOAMODERBase>, GPIOA::GPIOAMODERBase, 1U>::Set<ReadWriteMode, void>()
_ZN14FieldValueBaseI26GPIOA_MODER_MODER15_ValuesIN5GPIOA5MODERELj10ELj2E13ReadWriteModeNS1_14GPIOAMODERBaseEES4_Lj1EE3SetIS3_vEEvv:
        LDR.N    R1,??Set_3     
        LDR      R0,[R1, #+0]   
        BICS     R0,R0,#0xC00   
        ORRS     R0,R0,#0x400   
        STR      R0,[R1, #+0]   
        BX       LR             
        DATA
??Set_3:
        DATA32
        DC32     0x40020000     
          CFI EndBlock cfiBlock22

        SECTION `.text`:CODE:REORDER:NOROOT(2)
        SECTION_GROUP _ZN14FieldValueBaseI26GPIOA_MODER_MODER15_ValuesIN5GPIOA5MODERELj0ELj2E13ReadWriteModeNS1_14GPIOAMODERBaseEES4_Lj3EE3SetIS3_vEEvv
          CFI Block cfiBlock23 Using cfiCommon0
          CFI Function _ZN14FieldValueBaseI26GPIOA_MODER_MODER15_ValuesIN5GPIOA5MODERELj0ELj2E13ReadWriteModeNS1_14GPIOAMODERBaseEES4_Lj3EE3SetIS3_vEEvv
          CFI NoCalls
        THUMB
// __vfp void FieldValueBase<GPIOA_MODER_MODER15_Values<GPIOA::MODER, 0U, 2U, ReadWriteMode, GPIOA::GPIOAMODERBase>, GPIOA::GPIOAMODERBase, 3U>::Set<ReadWriteMode, void>()
_ZN14FieldValueBaseI26GPIOA_MODER_MODER15_ValuesIN5GPIOA5MODERELj0ELj2E13ReadWriteModeNS1_14GPIOAMODERBaseEES4_Lj3EE3SetIS3_vEEvv:
        LDR.N    R1,??Set_4     
        LDR      R0,[R1, #+0]   
        LSRS     R0,R0,#+2      
        LSLS     R0,R0,#+2      
        ORRS     R0,R0,#0x3     
        STR      R0,[R1, #+0]   
        BX       LR             
        DATA
??Set_4:
        DATA32
        DC32     0x40020000     
          CFI EndBlock cfiBlock23

        SECTION `.text`:CODE:REORDER:NOROOT(2)
        SECTION_GROUP _ZN14FieldValueBaseI25RCC_AHB1ENR_DMA2EN_ValuesIN3RCC7APB2ENRELj8ELj1E13ReadWriteModeNS1_14RCCAPB2ENRBaseEES4_Lj1EE3SetIS3_vEEvv
          CFI Block cfiBlock24 Using cfiCommon0
          CFI Function _ZN14FieldValueBaseI25RCC_AHB1ENR_DMA2EN_ValuesIN3RCC7APB2ENRELj8ELj1E13ReadWriteModeNS1_14RCCAPB2ENRBaseEES4_Lj1EE3SetIS3_vEEvv
          CFI NoCalls
        THUMB
// __vfp void FieldValueBase<RCC_AHB1ENR_DMA2EN_Values<RCC::APB2ENR, 8U, 1U, ReadWriteMode, RCC::RCCAPB2ENRBase>, RCC::RCCAPB2ENRBase, 1U>::Set<ReadWriteMode, void>()
_ZN14FieldValueBaseI25RCC_AHB1ENR_DMA2EN_ValuesIN3RCC7APB2ENRELj8ELj1E13ReadWriteModeNS1_14RCCAPB2ENRBaseEES4_Lj1EE3SetIS3_vEEvv:
        LDR.N    R1,??Set_5     
        LDR      R0,[R1, #+0]   
        BICS     R0,R0,#0x100   
        ORRS     R0,R0,#0x100   
        STR      R0,[R1, #+0]   
        BX       LR             
        DATA
??Set_5:
        DATA32
        DC32     0x40023844     
          CFI EndBlock cfiBlock24

        SECTION `.text`:CODE:REORDER:NOROOT(2)
        SECTION_GROUP _ZN14FieldValueBaseI25RCC_AHB1ENR_DMA2EN_ValuesIN3RCC7AHB1ENRELj22ELj1E13ReadWriteModeNS1_14RCCAHB1ENRBaseEES4_Lj1EE3SetIS3_vEEvv
          CFI Block cfiBlock25 Using cfiCommon0
          CFI Function _ZN14FieldValueBaseI25RCC_AHB1ENR_DMA2EN_ValuesIN3RCC7AHB1ENRELj22ELj1E13ReadWriteModeNS1_14RCCAHB1ENRBaseEES4_Lj1EE3SetIS3_vEEvv
          CFI NoCalls
        THUMB
// __vfp void FieldValueBase<RCC_AHB1ENR_DMA2EN_Values<RCC::AHB1ENR, 22U, 1U, ReadWriteMode, RCC::RCCAHB1ENRBase>, RCC::RCCAHB1ENRBase, 1U>::Set<ReadWriteMode, void>()
_ZN14FieldValueBaseI25RCC_AHB1ENR_DMA2EN_ValuesIN3RCC7AHB1ENRELj22ELj1E13ReadWriteModeNS1_14RCCAHB1ENRBaseEES4_Lj1EE3SetIS3_vEEvv:
        LDR.N    R1,??Set_6     
        LDR      R0,[R1, #+0]   
        BICS     R0,R0,#0x400000
        ORRS     R0,R0,#0x400000
        STR      R0,[R1, #+0]   
        BX       LR             
        DATA
??Set_6:
        DATA32
        DC32     0x40023830     
          CFI EndBlock cfiBlock25

        SECTION `.text`:CODE:REORDER:NOROOT(2)
        SECTION_GROUP _ZN14FieldValueBaseI25RCC_AHB1ENR_DMA2EN_ValuesIN3RCC7APB1ENRELj17ELj1E13ReadWriteModeNS1_14RCCAPB1ENRBaseEES4_Lj1EE3SetIS3_vEEvv
          CFI Block cfiBlock26 Using cfiCommon0
          CFI Function _ZN14FieldValueBaseI25RCC_AHB1ENR_DMA2EN_ValuesIN3RCC7APB1ENRELj17ELj1E13ReadWriteModeNS1_14RCCAPB1ENRBaseEES4_Lj1EE3SetIS3_vEEvv
          CFI NoCalls
        THUMB
// __vfp void FieldValueBase<RCC_AHB1ENR_DMA2EN_Values<RCC::APB1ENR, 17U, 1U, ReadWriteMode, RCC::RCCAPB1ENRBase>, RCC::RCCAPB1ENRBase, 1U>::Set<ReadWriteMode, void>()
_ZN14FieldValueBaseI25RCC_AHB1ENR_DMA2EN_ValuesIN3RCC7APB1ENRELj17ELj1E13ReadWriteModeNS1_14RCCAPB1ENRBaseEES4_Lj1EE3SetIS3_vEEvv:
        LDR.N    R1,??Set_7     
        LDR      R0,[R1, #+0]   
        BICS     R0,R0,#0x20000 
        ORRS     R0,R0,#0x20000 
        STR      R0,[R1, #+0]   
        BX       LR             
        DATA
??Set_7:
        DATA32
        DC32     0x40023840     
          CFI EndBlock cfiBlock26

        SECTION `.text`:CODE:REORDER:NOROOT(2)
        SECTION_GROUP _ZN14FieldValueBaseI20USART2_CR1_UE_ValuesIN6USART23CR1ELj13ELj1E13ReadWriteModeNS1_13USART2CR1BaseEES4_Lj1EE3SetIS3_vEEvv
          CFI Block cfiBlock27 Using cfiCommon0
          CFI Function _ZN14FieldValueBaseI20USART2_CR1_UE_ValuesIN6USART23CR1ELj13ELj1E13ReadWriteModeNS1_13USART2CR1BaseEES4_Lj1EE3SetIS3_vEEvv
          CFI NoCalls
        THUMB
// __vfp void FieldValueBase<USART2_CR1_UE_Values<USART2::CR1, 13U, 1U, ReadWriteMode, USART2::USART2CR1Base>, USART2::USART2CR1Base, 1U>::Set<ReadWriteMode, void>()
_ZN14FieldValueBaseI20USART2_CR1_UE_ValuesIN6USART23CR1ELj13ELj1E13ReadWriteModeNS1_13USART2CR1BaseEES4_Lj1EE3SetIS3_vEEvv:
        LDR.N    R1,??Set_8     
        LDR      R0,[R1, #+0]   
        BICS     R0,R0,#0x2000  
        ORRS     R0,R0,#0x2000  
        STR      R0,[R1, #+0]   
        BX       LR             
        DATA
??Set_8:
        DATA32
        DC32     0x4000440c     
          CFI EndBlock cfiBlock27

        SECTION `.text`:CODE:REORDER:NOROOT(2)
        SECTION_GROUP _ZN14FieldValueBaseI20USART2_CR1_TE_ValuesIN6USART23CR1ELj3ELj1E13ReadWriteModeNS1_13USART2CR1BaseEES4_Lj1EE3SetIS3_vEEvv
          CFI Block cfiBlock28 Using cfiCommon0
          CFI Function _ZN14FieldValueBaseI20USART2_CR1_TE_ValuesIN6USART23CR1ELj3ELj1E13ReadWriteModeNS1_13USART2CR1BaseEES4_Lj1EE3SetIS3_vEEvv
          CFI NoCalls
        THUMB
// __vfp void FieldValueBase<USART2_CR1_TE_Values<USART2::CR1, 3U, 1U, ReadWriteMode, USART2::USART2CR1Base>, USART2::USART2CR1Base, 1U>::Set<ReadWriteMode, void>()
_ZN14FieldValueBaseI20USART2_CR1_TE_ValuesIN6USART23CR1ELj3ELj1E13ReadWriteModeNS1_13USART2CR1BaseEES4_Lj1EE3SetIS3_vEEvv:
        LDR.N    R1,??Set_9     
        LDR      R0,[R1, #+0]   
        BICS     R0,R0,#0x8     
        ORRS     R0,R0,#0x8     
        STR      R0,[R1, #+0]   
        BX       LR             
        DATA
??Set_9:
        DATA32
        DC32     0x4000440c     
          CFI EndBlock cfiBlock28

        SECTION `.text`:CODE:REORDER:NOROOT(2)
        SECTION_GROUP _ZN14FieldValueBaseI20RCC_CR_HSERDY_ValuesIN3RCC2CRELj17ELj1E8ReadModeNS1_9RCCCRBaseEES4_Lj0EE5IsSetIS3_vEEbv
          CFI Block cfiBlock29 Using cfiCommon0
          CFI Function _ZN14FieldValueBaseI20RCC_CR_HSERDY_ValuesIN3RCC2CRELj17ELj1E8ReadModeNS1_9RCCCRBaseEES4_Lj0EE5IsSetIS3_vEEbv
          CFI NoCalls
        THUMB
// __vfp bool FieldValueBase<RCC_CR_HSERDY_Values<RCC::CR, 17U, 1U, ReadMode, RCC::RCCCRBase>, RCC::RCCCRBase, 0U>::IsSet<ReadMode, void>()
_ZN14FieldValueBaseI20RCC_CR_HSERDY_ValuesIN3RCC2CRELj17ELj1E8ReadModeNS1_9RCCCRBaseEES4_Lj0EE5IsSetIS3_vEEbv:
        LDR.N    R0,??IsSet_0   
        LDR      R0,[R0, #+0]   
        LSRS     R0,R0,#+17     
        ANDS     R0,R0,#0x1     
        EORS     R0,R0,#0x1     
        UXTB     R0,R0          
        BX       LR             
        Nop                     
        DATA
??IsSet_0:
        DATA32
        DC32     0x40023800     
          CFI EndBlock cfiBlock29

        SECTION `.text`:CODE:REORDER:NOROOT(2)
        SECTION_GROUP _ZN14FieldValueBaseI19RCC_CFGR_SWS_ValuesIN3RCC4CFGRELj2ELj2E8ReadModeNS1_11RCCCFGRBaseEES4_Lj1EE5IsSetIS3_vEEbv
          CFI Block cfiBlock30 Using cfiCommon0
          CFI Function _ZN14FieldValueBaseI19RCC_CFGR_SWS_ValuesIN3RCC4CFGRELj2ELj2E8ReadModeNS1_11RCCCFGRBaseEES4_Lj1EE5IsSetIS3_vEEbv
          CFI NoCalls
        THUMB
// __vfp bool FieldValueBase<RCC_CFGR_SWS_Values<RCC::CFGR, 2U, 2U, ReadMode, RCC::RCCCFGRBase>, RCC::RCCCFGRBase, 1U>::IsSet<ReadMode, void>()
_ZN14FieldValueBaseI19RCC_CFGR_SWS_ValuesIN3RCC4CFGRELj2ELj2E8ReadModeNS1_11RCCCFGRBaseEES4_Lj1EE5IsSetIS3_vEEbv:
        LDR.N    R0,??IsSet_1   
        LDR      R0,[R0, #+0]   
        ANDS     R0,R0,#0xC     
        CMP      R0,#+4         
        BNE.N    ??IsSet_2      
        MOVS     R0,#+1         
        B.N      ??IsSet_3      
??IsSet_2:
        MOVS     R0,#+0         
??IsSet_3:
        UXTB     R0,R0          
        BX       LR             
        Nop                     
        DATA
??IsSet_1:
        DATA32
        DC32     0x40023808     
          CFI EndBlock cfiBlock30

        SECTION `.text`:CODE:REORDER:NOROOT(2)
        SECTION_GROUP _ZN8RegisterILj1073887280ELj32E13ReadWriteModeN3RCC14RCCAHB1ENRBaseEJ10FieldValueI26RCC_AHB1ENR_GPIOCEN_ValuesINS1_7AHB1ENRELj2ELj1ES0_S2_ES2_Lj1EvES3_I26RCC_AHB1ENR_GPIOAEN_ValuesIS5_Lj0ELj1ES0_S2_ES2_Lj1EvEEE3SetIS0_vEEvv
          CFI Block cfiBlock31 Using cfiCommon0
          CFI Function _ZN8RegisterILj1073887280ELj32E13ReadWriteModeN3RCC14RCCAHB1ENRBaseEJ10FieldValueI26RCC_AHB1ENR_GPIOCEN_ValuesINS1_7AHB1ENRELj2ELj1ES0_S2_ES2_Lj1EvES3_I26RCC_AHB1ENR_GPIOAEN_ValuesIS5_Lj0ELj1ES0_S2_ES2_Lj1EvEEE3SetIS0_vEEvv
          CFI NoCalls
        THUMB
// __vfp void Register<1'073'887'280U, 32U, ReadWriteMode, RCC::RCCAHB1ENRBase, RCC_AHB1ENR_GPIOCEN_Values<RCC::AHB1ENR, 2U, 1U, ReadWriteMode, RCC::RCCAHB1ENRBase>::Enable, RCC_AHB1ENR_GPIOAEN_Values<RCC::AHB1ENR, 0U, 1U, ReadWriteMode, RCC::RCCAHB1ENRBase>::Enable>::Set<ReadWriteMode, void>()
_ZN8RegisterILj1073887280ELj32E13ReadWriteModeN3RCC14RCCAHB1ENRBaseEJ10FieldValueI26RCC_AHB1ENR_GPIOCEN_ValuesINS1_7AHB1ENRELj2ELj1ES0_S2_ES2_Lj1EvES3_I26RCC_AHB1ENR_GPIOAEN_ValuesIS5_Lj0ELj1ES0_S2_ES2_Lj1EvEEE3SetIS0_vEEvv:
        LDR.N    R1,??Set_10    
        LDR      R0,[R1, #+0]   
        BICS     R0,R0,#0x5     
        ORRS     R0,R0,#0x5     
        STR      R0,[R1, #+0]   
        BX       LR             
        DATA
??Set_10:
        DATA32
        DC32     0x40023830     
          CFI EndBlock cfiBlock31

        SECTION `.text`:CODE:REORDER:NOROOT(2)
        SECTION_GROUP _ZN8RegisterILj1073874944ELj32E13ReadWriteModeN5GPIOC14GPIOCMODERBaseEJ10FieldValueI26GPIOC_MODER_MODER15_ValuesINS1_5MODERELj10ELj2ES0_S2_ES2_Lj1EvES3_IS4_IS5_Lj16ELj2ES0_S2_ES2_Lj1EvES3_IS4_IS5_Lj18ELj2ES0_S2_ES2_Lj1EvEEE3SetIS0_vEEvv
          CFI Block cfiBlock32 Using cfiCommon0
          CFI Function _ZN8RegisterILj1073874944ELj32E13ReadWriteModeN5GPIOC14GPIOCMODERBaseEJ10FieldValueI26GPIOC_MODER_MODER15_ValuesINS1_5MODERELj10ELj2ES0_S2_ES2_Lj1EvES3_IS4_IS5_Lj16ELj2ES0_S2_ES2_Lj1EvES3_IS4_IS5_Lj18ELj2ES0_S2_ES2_Lj1EvEEE3SetIS0_vEEvv
          CFI NoCalls
        THUMB
// __vfp void Register<1'073'874'944U, 32U, ReadWriteMode, GPIOC::GPIOCMODERBase, GPIOC_MODER_MODER15_Values<GPIOC::MODER, 10U, 2U, ReadWriteMode, GPIOC::GPIOCMODERBase>::Output, GPIOC_MODER_MODER15_Values<GPIOC::MODER, 16U, 2U, ReadWriteMode, GPIOC::GPIOCMODERBase>::Output, GPIOC_MODER_MODER15_Values<GPIOC::MODER, 18U, 2U, ReadWriteMode, GPIOC::GPIOCMODERBase>::Output>::Set<ReadWriteMode, void>()
_ZN8RegisterILj1073874944ELj32E13ReadWriteModeN5GPIOC14GPIOCMODERBaseEJ10FieldValueI26GPIOC_MODER_MODER15_ValuesINS1_5MODERELj10ELj2ES0_S2_ES2_Lj1EvES3_IS4_IS5_Lj16ELj2ES0_S2_ES2_Lj1EvES3_IS4_IS5_Lj18ELj2ES0_S2_ES2_Lj1EvEEE3SetIS0_vEEvv:
        LDR.N    R2,??Set_11    
        LDR      R1,[R2, #+0]   
        LDR.N    R0,??Set_11+0x4
        ANDS     R1,R0,R1       
        ORR      R1,R1,#0x40000 
        ORRS     R1,R1,#0x10400 
        STR      R1,[R2, #+0]   
        BX       LR             
        DATA
??Set_11:
        DATA32
        DC32     0x40020800     
        DC32     0xfff0f3ff     
          CFI EndBlock cfiBlock32

        SECTION `.text`:CODE:REORDER:NOROOT(1)
        SECTION_GROUP _ZN14IDigitalFilterIfEC2Ev
          CFI Block cfiBlock33 Using cfiCommon0
          CFI Function _ZN14IDigitalFilterIfEC2Ev
        THUMB
// __vfp IDigitalFilter<float>::subobject IDigitalFilter() noexcept
_ZN14IDigitalFilterIfEC2Ev:
        PUSH     {R4,LR}        
          CFI R14 Frame(CFA, -4)
          CFI R4 Frame(CFA, -8)
          CFI CFA R13+8
        MOVS     R4,R0          
        MOVS     R0,R4          
          CFI FunCall _ZN14IDigitalFilterIfEC1Ev
        BL       _ZN14IDigitalFilterIfEC1Ev
        POP      {R4,PC}        
          CFI EndBlock cfiBlock33

        SECTION `.text`:CODE:REORDER:NOROOT(1)
        SECTION_GROUP _ZN14IDigitalFilterIfEC1Ev
          CFI Block cfiBlock34 Using cfiCommon0
          CFI Function _ZN14IDigitalFilterIfEC1Ev
          CFI NoCalls
        THUMB
// __vfp IDigitalFilter<float>::IDigitalFilter() noexcept
_ZN14IDigitalFilterIfEC1Ev:
        BX       LR             
          CFI EndBlock cfiBlock34

        SECTION `.text`:CODE:REORDER:NOROOT(1)
        SECTION_GROUP _ZN8IVoltageC2Ev
          CFI Block cfiBlock35 Using cfiCommon0
          CFI Function _ZN8IVoltageC2Ev
        THUMB
// __vfp IVoltage::subobject IVoltage() noexcept
_ZN8IVoltageC2Ev:
        PUSH     {R4,LR}        
          CFI R14 Frame(CFA, -4)
          CFI R4 Frame(CFA, -8)
          CFI CFA R13+8
        MOVS     R4,R0          
        MOVS     R0,R4          
          CFI FunCall _ZN8IVoltageC1Ev
        BL       _ZN8IVoltageC1Ev
        POP      {R4,PC}        
          CFI EndBlock cfiBlock35

        SECTION `.text`:CODE:REORDER:NOROOT(1)
        SECTION_GROUP _ZN8IVoltageC1Ev
          CFI Block cfiBlock36 Using cfiCommon0
          CFI Function _ZN8IVoltageC1Ev
          CFI NoCalls
        THUMB
// __vfp IVoltage::IVoltage() noexcept
_ZN8IVoltageC1Ev:
        BX       LR             
          CFI EndBlock cfiBlock36

        SECTION `.iar_vfe_vtableinfo_ZTV13DigitalFilterIfL_ZN29_INTERNAL_8_main_cpp_5d646a672dtEEL_ZNS0_2rcEEE`:DATA:NOALLOC:NOROOT(2)
        SECTION_TYPE SHT_PROGBITS, 0
        SECTION_GROUP _ZTV13DigitalFilterIfL_ZN29_INTERNAL_8_main_cpp_5d646a672dtEEL_ZNS0_2rcEEE
        DATA
        DC32    _ZTV13DigitalFilterIfL_ZN29_INTERNAL_8_main_cpp_5d646a672dtEEL_ZNS0_2rcEEE
        DC32    3
        DC32    2
        DC32    _ZTI13DigitalFilterIfL_ZN29_INTERNAL_8_main_cpp_5d646a672dtEEL_ZNS0_2rcEEE
        DC32    1
        DC32    2
        DC32    0
        DC32    _ZTI14IDigitalFilterIfE
        DC32    0
        DC32    1
        DC32    _ZTI13DigitalFilterIfL_ZN29_INTERNAL_8_main_cpp_5d646a672dtEEL_ZNS0_2rcEEE
        DC32    1
        DC32    2
        DC32    0

        SECTION `.iar_vfe_vtableinfo_ZTV7VoltageIL_ZN29_INTERNAL_8_main_cpp_5d646a6712maxAdcCountsEEL_ZNS0_12minAdcCountsEEL_ZNS0_10maxVoltageEEL_ZNS0_10minVoltageEEE`:DATA:NOALLOC:NOROOT(2)
        SECTION_TYPE SHT_PROGBITS, 0
        SECTION_GROUP _ZTV7VoltageIL_ZN29_INTERNAL_8_main_cpp_5d646a6712maxAdcCountsEEL_ZNS0_12minAdcCountsEEL_ZNS0_10maxVoltageEEL_ZNS0_10minVoltageEEE
        DATA
        DC32    _ZTV7VoltageIL_ZN29_INTERNAL_8_main_cpp_5d646a6712maxAdcCountsEEL_ZNS0_12minAdcCountsEEL_ZNS0_10maxVoltageEEL_ZNS0_10minVoltageEEE
        DC32    3
        DC32    2
        DC32    _ZTI7VoltageIL_ZN29_INTERNAL_8_main_cpp_5d646a6712maxAdcCountsEEL_ZNS0_12minAdcCountsEEL_ZNS0_10maxVoltageEEL_ZNS0_10minVoltageEEE
        DC32    1
        DC32    2
        DC32    0
        DC32    _ZTI8IVoltage
        DC32    0
        DC32    1
        DC32    _ZTI7VoltageIL_ZN29_INTERNAL_8_main_cpp_5d646a6712maxAdcCountsEEL_ZNS0_12minAdcCountsEEL_ZNS0_10maxVoltageEEL_ZNS0_10minVoltageEEE
        DC32    1
        DC32    2
        DC32    0

        SECTION `.init_array`:CODE:ROOT(2)
        SECTION_TYPE SHT_INIT_ARRAY, 0
        DATA
        DC32    RELOC_ARM_TARGET1 __sti__routine

        SECTION `.iar_vfe_vcallinfo_ZN9OsWrapper7IThread3RunEv`:DATA:NOALLOC:NOROOT(2)
        SECTION_TYPE SHT_PROGBITS, 0
        SECTION_GROUP _ZN9OsWrapper7IThread3RunEv
        DATA
        DC32    _ZN9OsWrapper7IThread3RunEv
        DC32    0
        DC32    0
        DC32    1
        DC32    _ZTIN9OsWrapper7IThreadE
        DC32    1
        DC32    1
        DC32    0
        DC32    0

        SECTION `.iar_vfe_vcallinfo_ZN7VoltageIL_ZN29_INTERNAL_8_main_cpp_5d646a6712maxAdcCountsEEL_ZNS0_12minAdcCountsEEL_ZNS0_10maxVoltageEEL_ZNS0_10minVoltageEEE7MeasureEv`:DATA:NOALLOC:NOROOT(2)
        SECTION_TYPE SHT_PROGBITS, 0
        SECTION_GROUP _ZN7VoltageIL_ZN29_INTERNAL_8_main_cpp_5d646a6712maxAdcCountsEEL_ZNS0_12minAdcCountsEEL_ZNS0_10maxVoltageEEL_ZNS0_10minVoltageEEE7MeasureEv
        DATA
        DC32    _ZN7VoltageIL_ZN29_INTERNAL_8_main_cpp_5d646a6712maxAdcCountsEEL_ZNS0_12minAdcCountsEEL_ZNS0_10maxVoltageEEL_ZNS0_10minVoltageEEE7MeasureEv
        DC32    0
        DC32    0
        DC32    1
        DC32    _ZTI16IRawDataProvider
        DC32    1
        DC32    1
        DC32    0
        DC32    0

        SECTION `.iar_vfe_header`:DATA:NOALLOC:NOROOT(2)
        SECTION_TYPE SHT_PROGBITS, 0
        DATA
        DC32 0

        END
// 
// 4'384 bytes in section .bss
//     5 bytes in section .data
//     4 bytes in section .init_array
//   429 bytes in section .rodata
// 1'094 bytes in section .text
// 
//   528 bytes of CODE  memory (+ 570 bytes shared)
//    81 bytes of CONST memory (+ 348 bytes shared)
// 4'389 bytes of DATA  memory
//
//Errors: none
//Warnings: none
