///////////////////////////////////////////////////////////////////////////////
//
// IAR ANSI C/C++ Compiler V9.30.1.335/W64 for ARM        26/Apr/2025  19:24:50
// Copyright 1999-2022 IAR Systems AB.
//
//    Cpu mode     =  thumb
//    Endian       =  little
//    Source file  =
//        D:\Documents\Other\Homework\Kolodiy\CoursePaper\source\RtosWrapper\main.cpp
//    Command line =
//        -f
//        D:\Documents\Other\Homework\Kolodiy\CoursePaper\source\RtosWrapper\Debug\Obj\main.o.rsp
//        (D:\Documents\Other\Homework\Kolodiy\CoursePaper\source\RtosWrapper\main.cpp
//        -lC
//        D:\Documents\Other\Homework\Kolodiy\CoursePaper\source\RtosWrapper\Debug\List\
//        -lA
//        D:\Documents\Other\Homework\Kolodiy\CoursePaper\source\RtosWrapper\Debug\List\
//        -o
//        D:\Documents\Other\Homework\Kolodiy\CoursePaper\source\RtosWrapper\Debug\Obj\
//        --no_cse --no_unroll --no_inline --no_code_motion --no_tbaa
//        --no_clustering --no_scheduling --debug --endian=little
//        --cpu=Cortex-M4 -e --fpu=VFPv4_sp --dlib_config
//        D:\Games\Programs\IAR\arm\inc\c\DLib_Config_Normal.h -I
//        D:\Documents\Other\Homework\Kolodiy\CoursePaper\source\RtosWrapper\Rtos\
//        -I
//        D:\Documents\Other\Homework\Kolodiy\CoursePaper\source\RtosWrapper\Rtos\wrapper\
//        -I
//        D:\Documents\Other\Homework\Kolodiy\CoursePaper\source\RtosWrapper\Rtos\wrapper\FreeRtos\
//        -I
//        D:\Documents\Other\Homework\Kolodiy\CoursePaper\source\RtosWrapper\Rtos\FreeRtos\
//        -I
//        D:\Documents\Other\Homework\Kolodiy\CoursePaper\source\RtosWrapper\Rtos\FreeRtos\include\
//        -I
//        D:\Documents\Other\Homework\Kolodiy\CoursePaper\source\RtosWrapper\Rtos\FreeRtos\portable\
//        -I
//        D:\Documents\Other\Homework\Kolodiy\CoursePaper\source\RtosWrapper\Rtos\FreeRtos\portable\Common\
//        -I
//        D:\Documents\Other\Homework\Kolodiy\CoursePaper\source\RtosWrapper\Rtos\FreeRtos\portable\IAR\
//        -I
//        D:\Documents\Other\Homework\Kolodiy\CoursePaper\source\RtosWrapper\Rtos\FreeRtos\portable\IAR\ARM_CM4F\
//        -I
//        D:\Documents\Other\Homework\Kolodiy\CoursePaper\source\RtosWrapper\Rtos\FreeRtos\portable\MemMang\
//        -I
//        D:\Documents\Other\Homework\Kolodiy\CoursePaper\source\RtosWrapper\MyTasks\
//        -I
//        D:\Documents\Other\Homework\Kolodiy\CoursePaper\source\RtosWrapper\Common\
//        -I
//        D:\Documents\Other\Homework\Kolodiy\CoursePaper\source\RtosWrapper\CMSIS\
//        -I
//        D:\Documents\Other\Homework\Kolodiy\CoursePaper\source\RtosWrapper\Application\
//        -I
//        D:\Documents\Other\Homework\Kolodiy\CoursePaper\source\RtosWrapper\Application\Diagnostic\
//        -I
//        D:\Documents\Other\Homework\Kolodiy\CoursePaper\source\RtosWrapper\AHardware\
//        -I
//        D:\Documents\Other\Homework\Kolodiy\CoursePaper\source\RtosWrapper\AHardware\GpioPort\
//        -I
//        D:\Documents\Other\Homework\Kolodiy\CoursePaper\source\RtosWrapper\AHardware\IrqController\
//        -I
//        D:\Documents\Other\Homework\Kolodiy\CoursePaper\source\RtosWrapper\..\CortexLib\AbstractHardware\Pin\
//        -I
//        D:\Documents\Other\Homework\Kolodiy\CoursePaper\source\RtosWrapper\..\CortexLib\AbstractHardware\Registers\STM32F411\FieldValues\
//        -I
//        D:\Documents\Other\Homework\Kolodiy\CoursePaper\source\RtosWrapper\..\CortexLib\AbstractHardware\Registers\STM32F411\
//        -I
//        D:\Documents\Other\Homework\Kolodiy\CoursePaper\source\RtosWrapper\..\CortexLib\AbstractHardware\Registers\
//        -I
//        D:\Documents\Other\Homework\Kolodiy\CoursePaper\source\RtosWrapper\..\CortexLib\AbstractHardware\Port\
//        -I
//        D:\Documents\Other\Homework\Kolodiy\CoursePaper\source\RtosWrapper\..\CortexLib\AbstractHardware\Atomic\
//        -I
//        D:\Documents\Other\Homework\Kolodiy\CoursePaper\source\RtosWrapper\..\CortexLib\Common\
//        -I
//        D:\Documents\Other\Homework\Kolodiy\CoursePaper\source\RtosWrapper\..\CortexLib\Common\Singleton\
//        -I
//        D:\Documents\Other\Homework\Kolodiy\CoursePaper\source\RtosWrapper\..\CortexLib\Common\RomObject\
//        -I
//        D:\Documents\Other\Homework\Kolodiy\CoursePaper\source\RtosWrapper\Application\AdcDmaDataProvider\
//        -I
//        D:\Documents\Other\Homework\Kolodiy\CoursePaper\source\RtosWrapper\Application\AdcDmaDataProvider\Contracts\
//        -I
//        D:\Documents\Other\Homework\Kolodiy\CoursePaper\source\RtosWrapper\Application\DataRepository\
//        -I
//        D:\Documents\Other\Homework\Kolodiy\CoursePaper\source\RtosWrapper\Application\DataRepository\Contracts\
//        -I
//        D:\Documents\Other\Homework\Kolodiy\CoursePaper\source\RtosWrapper\Application\DigitalFilter\
//        -I
//        D:\Documents\Other\Homework\Kolodiy\CoursePaper\source\RtosWrapper\Application\DigitalFilter\Contracts\
//        -I
//        D:\Documents\Other\Homework\Kolodiy\CoursePaper\source\RtosWrapper\Application\Formatter\
//        -I
//        D:\Documents\Other\Homework\Kolodiy\CoursePaper\source\RtosWrapper\Application\Formatter\Contracts\
//        -I
//        D:\Documents\Other\Homework\Kolodiy\CoursePaper\source\RtosWrapper\Application\Leds\
//        -I
//        D:\Documents\Other\Homework\Kolodiy\CoursePaper\source\RtosWrapper\Application\Leds\Contracts\
//        -I
//        D:\Documents\Other\Homework\Kolodiy\CoursePaper\source\RtosWrapper\Application\Usart\
//        -I
//        D:\Documents\Other\Homework\Kolodiy\CoursePaper\source\RtosWrapper\Application\Usart\Contracts\
//        -I
//        D:\Documents\Other\Homework\Kolodiy\CoursePaper\source\RtosWrapper\Application\Voltage\
//        -I
//        D:\Documents\Other\Homework\Kolodiy\CoursePaper\source\RtosWrapper\Application\Voltage\Contracts\
//        -Ol --c++ --no_exceptions --no_rtti) --dependencies=n
//        D:\Documents\Other\Homework\Kolodiy\CoursePaper\source\RtosWrapper\Debug\Obj\main.o.d
//    Locale       =  C
//    List file    =
//        D:\Documents\Other\Homework\Kolodiy\CoursePaper\source\RtosWrapper\Debug\List\main.s
//
///////////////////////////////////////////////////////////////////////////////

        RTMODEL "__CPP_Exceptions", "Disabled"
        RTMODEL "__CPP_Language", "C++14"
        RTMODEL "__CPP_Library", "DLib"
        RTMODEL "__CPP_Runtime", "1"
        RTMODEL "__SystemLibrary", "DLib"
        RTMODEL "__dlib_file_descriptor", "0"
        RTMODEL "__dlib_full_locale_support", "0"
        RTMODEL "__dlib_version", "6"
        AAPCS BASE,INTERWORK,VFP
        PRESERVE8
        REQUIRE8

        #define SHT_PROGBITS 0x1

        EXTERN _ZTVN10__cxxabiv117__class_type_infoE

        PUBLIC SystemCoreClock
        PUBLIC _ZN14FieldValueBaseI18RCC_CFGR_SW_ValuesIN3RCC4CFGRELj0ELj2E13ReadWriteModeNS1_11RCCCFGRBaseEES4_Lj0EE3SetIS3_vEEvv
        PUBLIC _ZN14FieldValueBaseI19RCC_CFGR_SWS_ValuesIN3RCC4CFGRELj2ELj2E8ReadModeNS1_11RCCCFGRBaseEES4_Lj0EE5IsSetIS3_vEEbv
        PUBLIC _ZN14FieldValueBaseI19RCC_CR_HSION_ValuesIN3RCC2CRELj0ELj1E13ReadWriteModeNS1_9RCCCRBaseEES4_Lj1EE3SetIS3_vEEvv
        PUBLIC _ZN14FieldValueBaseI20RCC_CR_HSIRDY_ValuesIN3RCC2CRELj1ELj1E8ReadModeNS1_9RCCCRBaseEES4_Lj0EE5IsSetIS3_vEEbv
        PUBLIC _ZN14FieldValueBaseI25RCC_AHB1ENR_DMA2EN_ValuesIN3RCC7AHB1ENRELj22ELj1E13ReadWriteModeNS1_14RCCAHB1ENRBaseEES4_Lj1EE3SetIS3_vEEvv
        PUBLIC _ZN14FieldValueBaseI25RCC_AHB1ENR_DMA2EN_ValuesIN3RCC7APB1ENRELj17ELj1E13ReadWriteModeNS1_14RCCAPB1ENRBaseEES4_Lj1EE3SetIS3_vEEvv
        PUBLIC _ZN14FieldValueBaseI25RCC_AHB1ENR_DMA2EN_ValuesIN3RCC7APB2ENRELj14ELj1E13ReadWriteModeNS1_14RCCAPB2ENRBaseEES4_Lj1EE3SetIS3_vEEvv
        PUBLIC _ZN14FieldValueBaseI25RCC_AHB1ENR_DMA2EN_ValuesIN3RCC7APB2ENRELj8ELj1E13ReadWriteModeNS1_14RCCAPB2ENRBaseEES4_Lj1EE3SetIS3_vEEvv
        PUBLIC _ZN14FieldValueBaseI26GPIOA_MODER_MODER15_ValuesIN5GPIOA5MODERELj0ELj2E13ReadWriteModeNS1_14GPIOAMODERBaseEES4_Lj3EE3SetIS3_vEEvv
        PUBLIC _ZN14FieldValueBaseI26GPIOA_MODER_MODER15_ValuesIN5GPIOA5MODERELj10ELj2E13ReadWriteModeNS1_14GPIOAMODERBaseEES4_Lj1EE3SetIS3_vEEvv
        PUBLIC _ZN8RegisterILj1073874944ELj32E13ReadWriteModeN5GPIOC14GPIOCMODERBaseEJ10FieldValueI26GPIOC_MODER_MODER15_ValuesINS1_5MODERELj10ELj2ES0_S2_ES2_Lj1EvES3_IS4_IS5_Lj16ELj2ES0_S2_ES2_Lj1EvES3_IS4_IS5_Lj18ELj2ES0_S2_ES2_Lj1EvEEE3SetIS0_vEEvv
        PUBLIC _ZN8RegisterILj1073887280ELj32E13ReadWriteModeN3RCC14RCCAHB1ENRBaseEJ10FieldValueI26RCC_AHB1ENR_GPIOCEN_ValuesINS1_7AHB1ENRELj2ELj1ES0_S2_ES2_Lj1EvES3_I26RCC_AHB1ENR_GPIOAEN_ValuesIS5_Lj0ELj1ES0_S2_ES2_Lj1EvEEE3SetIS0_vEEvv
        PUBLIC _ZTISt10ctype_base
        PUBLIC _ZTSSt10ctype_base
        PUBLIC _ZZN8RegisterILj1073874944ELj32E13ReadWriteModeN5GPIOC14GPIOCMODERBaseEJ10FieldValueI26GPIOC_MODER_MODER15_ValuesINS1_5MODERELj10ELj2ES0_S2_ES2_Lj1EvES3_IS4_IS5_Lj16ELj2ES0_S2_ES2_Lj1EvES3_IS4_IS5_Lj18ELj2ES0_S2_ES2_Lj1EvEEE3SetIS0_vEEvvE4mask
        PUBLIC _ZZN8RegisterILj1073874944ELj32E13ReadWriteModeN5GPIOC14GPIOCMODERBaseEJ10FieldValueI26GPIOC_MODER_MODER15_ValuesINS1_5MODERELj10ELj2ES0_S2_ES2_Lj1EvES3_IS4_IS5_Lj16ELj2ES0_S2_ES2_Lj1EvES3_IS4_IS5_Lj18ELj2ES0_S2_ES2_Lj1EvEEE3SetIS0_vEEvvE5value
        PUBLIC _ZZN8RegisterILj1073887280ELj32E13ReadWriteModeN3RCC14RCCAHB1ENRBaseEJ10FieldValueI26RCC_AHB1ENR_GPIOCEN_ValuesINS1_7AHB1ENRELj2ELj1ES0_S2_ES2_Lj1EvES3_I26RCC_AHB1ENR_GPIOAEN_ValuesIS5_Lj0ELj1ES0_S2_ES2_Lj1EvEEE3SetIS0_vEEvvE4mask
        PUBLIC _ZZN8RegisterILj1073887280ELj32E13ReadWriteModeN3RCC14RCCAHB1ENRBaseEJ10FieldValueI26RCC_AHB1ENR_GPIOCEN_ValuesINS1_7AHB1ENRELj2ELj1ES0_S2_ES2_Lj1EvES3_I26RCC_AHB1ENR_GPIOAEN_ValuesIS5_Lj0ELj1ES0_S2_ES2_Lj1EvEEE3SetIS0_vEEvvE5value
        PUBLIC __low_level_init
        PUBLIC main
        
          CFI Names cfiNames0
          CFI StackFrame CFA R13 DATA
          CFI Resource R0:32, R1:32, R2:32, R3:32, R4:32, R5:32, R6:32, R7:32
          CFI Resource R8:32, R9:32, R10:32, R11:32, R12:32, R13:32, R14:32
          CFI Resource D0:64, D1:64, D2:64, D3:64, D4:64, D5:64, D6:64, D7:64
          CFI Resource D8:64, D9:64, D10:64, D11:64, D12:64, D13:64, D14:64
          CFI Resource D15:64
          CFI EndNames cfiNames0
        
          CFI Common cfiCommon0 Using cfiNames0
          CFI CodeAlign 2
          CFI DataAlign 4
          CFI ReturnAddress R14 CODE
          CFI CFA R13+0
          CFI R0 Undefined
          CFI R1 Undefined
          CFI R2 Undefined
          CFI R3 Undefined
          CFI R4 SameValue
          CFI R5 SameValue
          CFI R6 SameValue
          CFI R7 SameValue
          CFI R8 SameValue
          CFI R9 SameValue
          CFI R10 SameValue
          CFI R11 SameValue
          CFI R12 Undefined
          CFI R14 SameValue
          CFI D0 Undefined
          CFI D1 Undefined
          CFI D2 Undefined
          CFI D3 Undefined
          CFI D4 Undefined
          CFI D5 Undefined
          CFI D6 Undefined
          CFI D7 Undefined
          CFI D8 SameValue
          CFI D9 SameValue
          CFI D10 SameValue
          CFI D11 SameValue
          CFI D12 SameValue
          CFI D13 SameValue
          CFI D14 SameValue
          CFI D15 SameValue
          CFI EndCommon cfiCommon0
        
// D:\Documents\Other\Homework\Kolodiy\CoursePaper\source\RtosWrapper\main.cpp
//    1 #include "rtos.hpp"         // for Rtos
//    2 
//    3 #include "rccregisters.hpp" // for RCC

        SECTION `.text`:CODE:REORDER:NOROOT(2)
        SECTION_GROUP _ZN14FieldValueBaseI19RCC_CR_HSION_ValuesIN3RCC2CRELj0ELj1E13ReadWriteModeNS1_9RCCCRBaseEES4_Lj1EE3SetIS3_vEEvv
          CFI Block cfiBlock0 Using cfiCommon0
          CFI Function _ZN14FieldValueBaseI19RCC_CR_HSION_ValuesIN3RCC2CRELj0ELj1E13ReadWriteModeNS1_9RCCCRBaseEES4_Lj1EE3SetIS3_vEEvv
          CFI NoCalls
        THUMB
// __vfp void FieldValueBase<RCC_CR_HSION_Values<RCC::CR, 0U, 1U, ReadWriteMode, RCC::RCCCRBase>, RCC::RCCCRBase, 1U>::Set<ReadWriteMode, void>()
_ZN14FieldValueBaseI19RCC_CR_HSION_ValuesIN3RCC2CRELj0ELj1E13ReadWriteModeNS1_9RCCCRBaseEES4_Lj1EE3SetIS3_vEEvv:
        LDR.N    R1,??Set_0     
        LDR      R0,[R1, #+0]   
        LSRS     R0,R0,#+1      
        LSLS     R0,R0,#+1      
        ORRS     R0,R0,#0x1     
        STR      R0,[R1, #+0]   
        BX       LR             
        DATA
??Set_0:
        DATA32
        DC32     0x40023800     
          CFI EndBlock cfiBlock0

        SECTION `.text`:CODE:REORDER:NOROOT(2)
        SECTION_GROUP _ZN14FieldValueBaseI18RCC_CFGR_SW_ValuesIN3RCC4CFGRELj0ELj2E13ReadWriteModeNS1_11RCCCFGRBaseEES4_Lj0EE3SetIS3_vEEvv
          CFI Block cfiBlock1 Using cfiCommon0
          CFI Function _ZN14FieldValueBaseI18RCC_CFGR_SW_ValuesIN3RCC4CFGRELj0ELj2E13ReadWriteModeNS1_11RCCCFGRBaseEES4_Lj0EE3SetIS3_vEEvv
          CFI NoCalls
        THUMB
// __vfp void FieldValueBase<RCC_CFGR_SW_Values<RCC::CFGR, 0U, 2U, ReadWriteMode, RCC::RCCCFGRBase>, RCC::RCCCFGRBase, 0U>::Set<ReadWriteMode, void>()
_ZN14FieldValueBaseI18RCC_CFGR_SW_ValuesIN3RCC4CFGRELj0ELj2E13ReadWriteModeNS1_11RCCCFGRBaseEES4_Lj0EE3SetIS3_vEEvv:
        LDR.N    R1,??Set_1     
        LDR      R0,[R1, #+0]   
        LSRS     R0,R0,#+2      
        LSLS     R0,R0,#+2      
        STR      R0,[R1, #+0]   
        BX       LR             
        DATA
??Set_1:
        DATA32
        DC32     0x40023808     
          CFI EndBlock cfiBlock1

        SECTION `.text`:CODE:REORDER:NOROOT(2)
        SECTION_GROUP _ZN14FieldValueBaseI25RCC_AHB1ENR_DMA2EN_ValuesIN3RCC7APB2ENRELj14ELj1E13ReadWriteModeNS1_14RCCAPB2ENRBaseEES4_Lj1EE3SetIS3_vEEvv
          CFI Block cfiBlock2 Using cfiCommon0
          CFI Function _ZN14FieldValueBaseI25RCC_AHB1ENR_DMA2EN_ValuesIN3RCC7APB2ENRELj14ELj1E13ReadWriteModeNS1_14RCCAPB2ENRBaseEES4_Lj1EE3SetIS3_vEEvv
          CFI NoCalls
        THUMB
// __vfp void FieldValueBase<RCC_AHB1ENR_DMA2EN_Values<RCC::APB2ENR, 14U, 1U, ReadWriteMode, RCC::RCCAPB2ENRBase>, RCC::RCCAPB2ENRBase, 1U>::Set<ReadWriteMode, void>()
_ZN14FieldValueBaseI25RCC_AHB1ENR_DMA2EN_ValuesIN3RCC7APB2ENRELj14ELj1E13ReadWriteModeNS1_14RCCAPB2ENRBaseEES4_Lj1EE3SetIS3_vEEvv:
        LDR.N    R1,??Set_2     
        LDR      R0,[R1, #+0]   
        BICS     R0,R0,#0x4000  
        ORRS     R0,R0,#0x4000  
        STR      R0,[R1, #+0]   
        BX       LR             
        DATA
??Set_2:
        DATA32
        DC32     0x40023844     
          CFI EndBlock cfiBlock2

        SECTION `.text`:CODE:REORDER:NOROOT(2)
        SECTION_GROUP _ZN14FieldValueBaseI26GPIOA_MODER_MODER15_ValuesIN5GPIOA5MODERELj10ELj2E13ReadWriteModeNS1_14GPIOAMODERBaseEES4_Lj1EE3SetIS3_vEEvv
          CFI Block cfiBlock3 Using cfiCommon0
          CFI Function _ZN14FieldValueBaseI26GPIOA_MODER_MODER15_ValuesIN5GPIOA5MODERELj10ELj2E13ReadWriteModeNS1_14GPIOAMODERBaseEES4_Lj1EE3SetIS3_vEEvv
          CFI NoCalls
        THUMB
// __vfp void FieldValueBase<GPIOA_MODER_MODER15_Values<GPIOA::MODER, 10U, 2U, ReadWriteMode, GPIOA::GPIOAMODERBase>, GPIOA::GPIOAMODERBase, 1U>::Set<ReadWriteMode, void>()
_ZN14FieldValueBaseI26GPIOA_MODER_MODER15_ValuesIN5GPIOA5MODERELj10ELj2E13ReadWriteModeNS1_14GPIOAMODERBaseEES4_Lj1EE3SetIS3_vEEvv:
        LDR.N    R1,??Set_3     
        LDR      R0,[R1, #+0]   
        BICS     R0,R0,#0xC00   
        ORRS     R0,R0,#0x400   
        STR      R0,[R1, #+0]   
        BX       LR             
        DATA
??Set_3:
        DATA32
        DC32     0x40020000     
          CFI EndBlock cfiBlock3

        SECTION `.text`:CODE:REORDER:NOROOT(2)
        SECTION_GROUP _ZN14FieldValueBaseI26GPIOA_MODER_MODER15_ValuesIN5GPIOA5MODERELj0ELj2E13ReadWriteModeNS1_14GPIOAMODERBaseEES4_Lj3EE3SetIS3_vEEvv
          CFI Block cfiBlock4 Using cfiCommon0
          CFI Function _ZN14FieldValueBaseI26GPIOA_MODER_MODER15_ValuesIN5GPIOA5MODERELj0ELj2E13ReadWriteModeNS1_14GPIOAMODERBaseEES4_Lj3EE3SetIS3_vEEvv
          CFI NoCalls
        THUMB
// __vfp void FieldValueBase<GPIOA_MODER_MODER15_Values<GPIOA::MODER, 0U, 2U, ReadWriteMode, GPIOA::GPIOAMODERBase>, GPIOA::GPIOAMODERBase, 3U>::Set<ReadWriteMode, void>()
_ZN14FieldValueBaseI26GPIOA_MODER_MODER15_ValuesIN5GPIOA5MODERELj0ELj2E13ReadWriteModeNS1_14GPIOAMODERBaseEES4_Lj3EE3SetIS3_vEEvv:
        LDR.N    R1,??Set_4     
        LDR      R0,[R1, #+0]   
        LSRS     R0,R0,#+2      
        LSLS     R0,R0,#+2      
        ORRS     R0,R0,#0x3     
        STR      R0,[R1, #+0]   
        BX       LR             
        DATA
??Set_4:
        DATA32
        DC32     0x40020000     
          CFI EndBlock cfiBlock4

        SECTION `.text`:CODE:REORDER:NOROOT(2)
        SECTION_GROUP _ZN14FieldValueBaseI25RCC_AHB1ENR_DMA2EN_ValuesIN3RCC7APB2ENRELj8ELj1E13ReadWriteModeNS1_14RCCAPB2ENRBaseEES4_Lj1EE3SetIS3_vEEvv
          CFI Block cfiBlock5 Using cfiCommon0
          CFI Function _ZN14FieldValueBaseI25RCC_AHB1ENR_DMA2EN_ValuesIN3RCC7APB2ENRELj8ELj1E13ReadWriteModeNS1_14RCCAPB2ENRBaseEES4_Lj1EE3SetIS3_vEEvv
          CFI NoCalls
        THUMB
// __vfp void FieldValueBase<RCC_AHB1ENR_DMA2EN_Values<RCC::APB2ENR, 8U, 1U, ReadWriteMode, RCC::RCCAPB2ENRBase>, RCC::RCCAPB2ENRBase, 1U>::Set<ReadWriteMode, void>()
_ZN14FieldValueBaseI25RCC_AHB1ENR_DMA2EN_ValuesIN3RCC7APB2ENRELj8ELj1E13ReadWriteModeNS1_14RCCAPB2ENRBaseEES4_Lj1EE3SetIS3_vEEvv:
        LDR.N    R1,??Set_5     
        LDR      R0,[R1, #+0]   
        BICS     R0,R0,#0x100   
        ORRS     R0,R0,#0x100   
        STR      R0,[R1, #+0]   
        BX       LR             
        DATA
??Set_5:
        DATA32
        DC32     0x40023844     
          CFI EndBlock cfiBlock5

        SECTION `.text`:CODE:REORDER:NOROOT(2)
        SECTION_GROUP _ZN14FieldValueBaseI25RCC_AHB1ENR_DMA2EN_ValuesIN3RCC7AHB1ENRELj22ELj1E13ReadWriteModeNS1_14RCCAHB1ENRBaseEES4_Lj1EE3SetIS3_vEEvv
          CFI Block cfiBlock6 Using cfiCommon0
          CFI Function _ZN14FieldValueBaseI25RCC_AHB1ENR_DMA2EN_ValuesIN3RCC7AHB1ENRELj22ELj1E13ReadWriteModeNS1_14RCCAHB1ENRBaseEES4_Lj1EE3SetIS3_vEEvv
          CFI NoCalls
        THUMB
// __vfp void FieldValueBase<RCC_AHB1ENR_DMA2EN_Values<RCC::AHB1ENR, 22U, 1U, ReadWriteMode, RCC::RCCAHB1ENRBase>, RCC::RCCAHB1ENRBase, 1U>::Set<ReadWriteMode, void>()
_ZN14FieldValueBaseI25RCC_AHB1ENR_DMA2EN_ValuesIN3RCC7AHB1ENRELj22ELj1E13ReadWriteModeNS1_14RCCAHB1ENRBaseEES4_Lj1EE3SetIS3_vEEvv:
        LDR.N    R1,??Set_6     
        LDR      R0,[R1, #+0]   
        BICS     R0,R0,#0x400000
        ORRS     R0,R0,#0x400000
        STR      R0,[R1, #+0]   
        BX       LR             
        DATA
??Set_6:
        DATA32
        DC32     0x40023830     
          CFI EndBlock cfiBlock6

        SECTION `.text`:CODE:REORDER:NOROOT(2)
        SECTION_GROUP _ZN14FieldValueBaseI25RCC_AHB1ENR_DMA2EN_ValuesIN3RCC7APB1ENRELj17ELj1E13ReadWriteModeNS1_14RCCAPB1ENRBaseEES4_Lj1EE3SetIS3_vEEvv
          CFI Block cfiBlock7 Using cfiCommon0
          CFI Function _ZN14FieldValueBaseI25RCC_AHB1ENR_DMA2EN_ValuesIN3RCC7APB1ENRELj17ELj1E13ReadWriteModeNS1_14RCCAPB1ENRBaseEES4_Lj1EE3SetIS3_vEEvv
          CFI NoCalls
        THUMB
// __vfp void FieldValueBase<RCC_AHB1ENR_DMA2EN_Values<RCC::APB1ENR, 17U, 1U, ReadWriteMode, RCC::RCCAPB1ENRBase>, RCC::RCCAPB1ENRBase, 1U>::Set<ReadWriteMode, void>()
_ZN14FieldValueBaseI25RCC_AHB1ENR_DMA2EN_ValuesIN3RCC7APB1ENRELj17ELj1E13ReadWriteModeNS1_14RCCAPB1ENRBaseEES4_Lj1EE3SetIS3_vEEvv:
        LDR.N    R1,??Set_7     
        LDR      R0,[R1, #+0]   
        BICS     R0,R0,#0x20000 
        ORRS     R0,R0,#0x20000 
        STR      R0,[R1, #+0]   
        BX       LR             
        DATA
??Set_7:
        DATA32
        DC32     0x40023840     
          CFI EndBlock cfiBlock7

        SECTION `.text`:CODE:REORDER:NOROOT(2)
        SECTION_GROUP _ZN14FieldValueBaseI20RCC_CR_HSIRDY_ValuesIN3RCC2CRELj1ELj1E8ReadModeNS1_9RCCCRBaseEES4_Lj0EE5IsSetIS3_vEEbv
          CFI Block cfiBlock8 Using cfiCommon0
          CFI Function _ZN14FieldValueBaseI20RCC_CR_HSIRDY_ValuesIN3RCC2CRELj1ELj1E8ReadModeNS1_9RCCCRBaseEES4_Lj0EE5IsSetIS3_vEEbv
          CFI NoCalls
        THUMB
// __vfp bool FieldValueBase<RCC_CR_HSIRDY_Values<RCC::CR, 1U, 1U, ReadMode, RCC::RCCCRBase>, RCC::RCCCRBase, 0U>::IsSet<ReadMode, void>()
_ZN14FieldValueBaseI20RCC_CR_HSIRDY_ValuesIN3RCC2CRELj1ELj1E8ReadModeNS1_9RCCCRBaseEES4_Lj0EE5IsSetIS3_vEEbv:
        LDR.N    R0,??IsSet_0   
        LDR      R0,[R0, #+0]   
        LSRS     R0,R0,#+1      
        ANDS     R0,R0,#0x1     
        EORS     R0,R0,#0x1     
        UXTB     R0,R0          
        BX       LR             
        Nop                     
        DATA
??IsSet_0:
        DATA32
        DC32     0x40023800     
          CFI EndBlock cfiBlock8

        SECTION `.text`:CODE:REORDER:NOROOT(2)
        SECTION_GROUP _ZN14FieldValueBaseI19RCC_CFGR_SWS_ValuesIN3RCC4CFGRELj2ELj2E8ReadModeNS1_11RCCCFGRBaseEES4_Lj0EE5IsSetIS3_vEEbv
          CFI Block cfiBlock9 Using cfiCommon0
          CFI Function _ZN14FieldValueBaseI19RCC_CFGR_SWS_ValuesIN3RCC4CFGRELj2ELj2E8ReadModeNS1_11RCCCFGRBaseEES4_Lj0EE5IsSetIS3_vEEbv
          CFI NoCalls
        THUMB
// __vfp bool FieldValueBase<RCC_CFGR_SWS_Values<RCC::CFGR, 2U, 2U, ReadMode, RCC::RCCCFGRBase>, RCC::RCCCFGRBase, 0U>::IsSet<ReadMode, void>()
_ZN14FieldValueBaseI19RCC_CFGR_SWS_ValuesIN3RCC4CFGRELj2ELj2E8ReadModeNS1_11RCCCFGRBaseEES4_Lj0EE5IsSetIS3_vEEbv:
        LDR.N    R0,??IsSet_1   
        LDR      R0,[R0, #+0]   
        TST      R0,#0xC        
        BNE.N    ??IsSet_2      
        MOVS     R0,#+1         
        B.N      ??IsSet_3      
??IsSet_2:
        MOVS     R0,#+0         
??IsSet_3:
        UXTB     R0,R0          
        BX       LR             
        DATA
??IsSet_1:
        DATA32
        DC32     0x40023808     
          CFI EndBlock cfiBlock9

        SECTION `.text`:CODE:REORDER:NOROOT(2)
        SECTION_GROUP _ZN8RegisterILj1073887280ELj32E13ReadWriteModeN3RCC14RCCAHB1ENRBaseEJ10FieldValueI26RCC_AHB1ENR_GPIOCEN_ValuesINS1_7AHB1ENRELj2ELj1ES0_S2_ES2_Lj1EvES3_I26RCC_AHB1ENR_GPIOAEN_ValuesIS5_Lj0ELj1ES0_S2_ES2_Lj1EvEEE3SetIS0_vEEvv
          CFI Block cfiBlock10 Using cfiCommon0
          CFI Function _ZN8RegisterILj1073887280ELj32E13ReadWriteModeN3RCC14RCCAHB1ENRBaseEJ10FieldValueI26RCC_AHB1ENR_GPIOCEN_ValuesINS1_7AHB1ENRELj2ELj1ES0_S2_ES2_Lj1EvES3_I26RCC_AHB1ENR_GPIOAEN_ValuesIS5_Lj0ELj1ES0_S2_ES2_Lj1EvEEE3SetIS0_vEEvv
          CFI NoCalls
        THUMB
// __vfp void Register<1'073'887'280U, 32U, ReadWriteMode, RCC::RCCAHB1ENRBase, RCC_AHB1ENR_GPIOCEN_Values<RCC::AHB1ENR, 2U, 1U, ReadWriteMode, RCC::RCCAHB1ENRBase>::Enable, RCC_AHB1ENR_GPIOAEN_Values<RCC::AHB1ENR, 0U, 1U, ReadWriteMode, RCC::RCCAHB1ENRBase>::Enable>::Set<ReadWriteMode, void>()
_ZN8RegisterILj1073887280ELj32E13ReadWriteModeN3RCC14RCCAHB1ENRBaseEJ10FieldValueI26RCC_AHB1ENR_GPIOCEN_ValuesINS1_7AHB1ENRELj2ELj1ES0_S2_ES2_Lj1EvES3_I26RCC_AHB1ENR_GPIOAEN_ValuesIS5_Lj0ELj1ES0_S2_ES2_Lj1EvEEE3SetIS0_vEEvv:
        LDR.N    R1,??Set_8     
        LDR      R0,[R1, #+0]   
        BICS     R0,R0,#0x5     
        ORRS     R0,R0,#0x5     
        STR      R0,[R1, #+0]   
        BX       LR             
        DATA
??Set_8:
        DATA32
        DC32     0x40023830     
          CFI EndBlock cfiBlock10

        SECTION `.text`:CODE:REORDER:NOROOT(2)
        SECTION_GROUP _ZN8RegisterILj1073874944ELj32E13ReadWriteModeN5GPIOC14GPIOCMODERBaseEJ10FieldValueI26GPIOC_MODER_MODER15_ValuesINS1_5MODERELj10ELj2ES0_S2_ES2_Lj1EvES3_IS4_IS5_Lj16ELj2ES0_S2_ES2_Lj1EvES3_IS4_IS5_Lj18ELj2ES0_S2_ES2_Lj1EvEEE3SetIS0_vEEvv
          CFI Block cfiBlock11 Using cfiCommon0
          CFI Function _ZN8RegisterILj1073874944ELj32E13ReadWriteModeN5GPIOC14GPIOCMODERBaseEJ10FieldValueI26GPIOC_MODER_MODER15_ValuesINS1_5MODERELj10ELj2ES0_S2_ES2_Lj1EvES3_IS4_IS5_Lj16ELj2ES0_S2_ES2_Lj1EvES3_IS4_IS5_Lj18ELj2ES0_S2_ES2_Lj1EvEEE3SetIS0_vEEvv
          CFI NoCalls
        THUMB
// __vfp void Register<1'073'874'944U, 32U, ReadWriteMode, GPIOC::GPIOCMODERBase, GPIOC_MODER_MODER15_Values<GPIOC::MODER, 10U, 2U, ReadWriteMode, GPIOC::GPIOCMODERBase>::Output, GPIOC_MODER_MODER15_Values<GPIOC::MODER, 16U, 2U, ReadWriteMode, GPIOC::GPIOCMODERBase>::Output, GPIOC_MODER_MODER15_Values<GPIOC::MODER, 18U, 2U, ReadWriteMode, GPIOC::GPIOCMODERBase>::Output>::Set<ReadWriteMode, void>()
_ZN8RegisterILj1073874944ELj32E13ReadWriteModeN5GPIOC14GPIOCMODERBaseEJ10FieldValueI26GPIOC_MODER_MODER15_ValuesINS1_5MODERELj10ELj2ES0_S2_ES2_Lj1EvES3_IS4_IS5_Lj16ELj2ES0_S2_ES2_Lj1EvES3_IS4_IS5_Lj18ELj2ES0_S2_ES2_Lj1EvEEE3SetIS0_vEEvv:
        LDR.N    R2,??Set_9     
        LDR      R1,[R2, #+0]   
        LDR.N    R0,??Set_9+0x4 
        ANDS     R1,R0,R1       
        ORR      R1,R1,#0x40000 
        ORRS     R1,R1,#0x10400 
        STR      R1,[R2, #+0]   
        BX       LR             
        DATA
??Set_9:
        DATA32
        DC32     0x40020800     
        DC32     0xfff0f3ff     
          CFI EndBlock cfiBlock11

        SECTION `.rodata`:CONST:REORDER:NOROOT(2)
        SECTION_GROUP _ZTISt10ctype_base
        DATA
// __absolute __class_type_info const <Typeinfo for std::ctype_base>
_ZTISt10ctype_base:
        DATA32
        DC32 _ZTVN10__cxxabiv117__class_type_infoE + 0x8, _ZTSSt10ctype_base

        SECTION `.rodata`:CONST:REORDER:NOROOT(2)
        SECTION_GROUP _ZTSSt10ctype_base
        DATA
// __absolute char const <Typeinfo name for std::ctype_base>[15]
_ZTSSt10ctype_base:
        DATA8
        DC8 "St10ctype_base"
        DS8 1

        SECTION `.rodata`:CONST:REORDER:NOROOT(2)
        SECTION_GROUP _ZZN8RegisterILj1073887280ELj32E13ReadWriteModeN3RCC14RCCAHB1ENRBaseEJ10FieldValueI26RCC_AHB1ENR_GPIOCEN_ValuesINS1_7AHB1ENRELj2ELj1ES0_S2_ES2_Lj1EvES3_I26RCC_AHB1ENR_GPIOAEN_ValuesIS5_Lj0ELj1ES0_S2_ES2_Lj1EvEEE3SetIS0_vEEvvE4mask
        DATA
// __absolute unsigned int const mask
_ZZN8RegisterILj1073887280ELj32E13ReadWriteModeN3RCC14RCCAHB1ENRBaseEJ10FieldValueI26RCC_AHB1ENR_GPIOCEN_ValuesINS1_7AHB1ENRELj2ELj1ES0_S2_ES2_Lj1EvES3_I26RCC_AHB1ENR_GPIOAEN_ValuesIS5_Lj0ELj1ES0_S2_ES2_Lj1EvEEE3SetIS0_vEEvvE4mask:
        DATA32
        DC32 5

        SECTION `.rodata`:CONST:REORDER:NOROOT(2)
        SECTION_GROUP _ZZN8RegisterILj1073874944ELj32E13ReadWriteModeN5GPIOC14GPIOCMODERBaseEJ10FieldValueI26GPIOC_MODER_MODER15_ValuesINS1_5MODERELj10ELj2ES0_S2_ES2_Lj1EvES3_IS4_IS5_Lj16ELj2ES0_S2_ES2_Lj1EvES3_IS4_IS5_Lj18ELj2ES0_S2_ES2_Lj1EvEEE3SetIS0_vEEvvE4mask
        DATA
// __absolute unsigned int const mask
_ZZN8RegisterILj1073874944ELj32E13ReadWriteModeN5GPIOC14GPIOCMODERBaseEJ10FieldValueI26GPIOC_MODER_MODER15_ValuesINS1_5MODERELj10ELj2ES0_S2_ES2_Lj1EvES3_IS4_IS5_Lj16ELj2ES0_S2_ES2_Lj1EvES3_IS4_IS5_Lj18ELj2ES0_S2_ES2_Lj1EvEEE3SetIS0_vEEvvE4mask:
        DATA32
        DC32 986'112

        SECTION `.rodata`:CONST:REORDER:NOROOT(2)
        SECTION_GROUP _ZZN8RegisterILj1073887280ELj32E13ReadWriteModeN3RCC14RCCAHB1ENRBaseEJ10FieldValueI26RCC_AHB1ENR_GPIOCEN_ValuesINS1_7AHB1ENRELj2ELj1ES0_S2_ES2_Lj1EvES3_I26RCC_AHB1ENR_GPIOAEN_ValuesIS5_Lj0ELj1ES0_S2_ES2_Lj1EvEEE3SetIS0_vEEvvE5value
        DATA
// __absolute unsigned int const value
_ZZN8RegisterILj1073887280ELj32E13ReadWriteModeN3RCC14RCCAHB1ENRBaseEJ10FieldValueI26RCC_AHB1ENR_GPIOCEN_ValuesINS1_7AHB1ENRELj2ELj1ES0_S2_ES2_Lj1EvES3_I26RCC_AHB1ENR_GPIOAEN_ValuesIS5_Lj0ELj1ES0_S2_ES2_Lj1EvEEE3SetIS0_vEEvvE5value:
        DATA32
        DC32 5

        SECTION `.rodata`:CONST:REORDER:NOROOT(2)
        SECTION_GROUP _ZZN8RegisterILj1073874944ELj32E13ReadWriteModeN5GPIOC14GPIOCMODERBaseEJ10FieldValueI26GPIOC_MODER_MODER15_ValuesINS1_5MODERELj10ELj2ES0_S2_ES2_Lj1EvES3_IS4_IS5_Lj16ELj2ES0_S2_ES2_Lj1EvES3_IS4_IS5_Lj18ELj2ES0_S2_ES2_Lj1EvEEE3SetIS0_vEEvvE5value
        DATA
// __absolute unsigned int const value
_ZZN8RegisterILj1073874944ELj32E13ReadWriteModeN5GPIOC14GPIOCMODERBaseEJ10FieldValueI26GPIOC_MODER_MODER15_ValuesINS1_5MODERELj10ELj2ES0_S2_ES2_Lj1EvES3_IS4_IS5_Lj16ELj2ES0_S2_ES2_Lj1EvES3_IS4_IS5_Lj18ELj2ES0_S2_ES2_Lj1EvEEE3SetIS0_vEEvvE5value:
        DATA32
        DC32 328'704
//    4 
//    5 #include "gpioaregisters.hpp"  // for GPIOA
//    6 #include "gpiocregisters.hpp"  // for GPIOC
//    7 #include "usart2registers.hpp" // for Usart2 registers
//    8 
//    9 

        SECTION `.data`:DATA:REORDER:NOROOT(2)
        DATA
//   10 std::uint32_t SystemCoreClock = 16'000'000U;
SystemCoreClock:
        DATA32
        DC32 16'000'000
//   11 
//   12 extern "C" {

        SECTION `.text`:CODE:NOROOT(1)
          CFI Block cfiBlock12 Using cfiCommon0
          CFI Function __low_level_init
        THUMB
//   13   int __low_level_init(void)
//   14   {
__low_level_init:
        PUSH     {R7,LR}        
          CFI R14 Frame(CFA, -4)
          CFI CFA R13+8
//   15     //Switch on internal 16 MHz oscillator
//   16     RCC::CR::HSION::On::Set();
          CFI FunCall _ZN14FieldValueBaseI19RCC_CR_HSION_ValuesIN3RCC2CRELj0ELj1E13ReadWriteModeNS1_9RCCCRBaseEES4_Lj1EE3SetIS3_vEEvv
        BL       _ZN14FieldValueBaseI19RCC_CR_HSION_ValuesIN3RCC2CRELj0ELj1E13ReadWriteModeNS1_9RCCCRBaseEES4_Lj1EE3SetIS3_vEEvv
//   17     while (RCC::CR::HSIRDY::NotReady::IsSet())
??__low_level_init_0:
          CFI FunCall _ZN14FieldValueBaseI20RCC_CR_HSIRDY_ValuesIN3RCC2CRELj1ELj1E8ReadModeNS1_9RCCCRBaseEES4_Lj0EE5IsSetIS3_vEEbv
        BL       _ZN14FieldValueBaseI20RCC_CR_HSIRDY_ValuesIN3RCC2CRELj1ELj1E8ReadModeNS1_9RCCCRBaseEES4_Lj0EE5IsSetIS3_vEEbv
        CMP      R0,#+0         
        BNE.N    ??__low_level_init_0
//   18     {
//   19 
//   20     }
//   21     //Switch system clock on internal oscillator
//   22     RCC::CFGR::SW::Hsi::Set();
          CFI FunCall _ZN14FieldValueBaseI18RCC_CFGR_SW_ValuesIN3RCC4CFGRELj0ELj2E13ReadWriteModeNS1_11RCCCFGRBaseEES4_Lj0EE3SetIS3_vEEvv
        BL       _ZN14FieldValueBaseI18RCC_CFGR_SW_ValuesIN3RCC4CFGRELj0ELj2E13ReadWriteModeNS1_11RCCCFGRBaseEES4_Lj0EE3SetIS3_vEEvv
//   23     while (!RCC::CFGR::SWS::Hsi::IsSet())
??__low_level_init_1:
          CFI FunCall _ZN14FieldValueBaseI19RCC_CFGR_SWS_ValuesIN3RCC4CFGRELj2ELj2E8ReadModeNS1_11RCCCFGRBaseEES4_Lj0EE5IsSetIS3_vEEbv
        BL       _ZN14FieldValueBaseI19RCC_CFGR_SWS_ValuesIN3RCC4CFGRELj2ELj2E8ReadModeNS1_11RCCCFGRBaseEES4_Lj0EE5IsSetIS3_vEEbv
        CMP      R0,#+0         
        BEQ.N    ??__low_level_init_1
//   24     {
//   25 
//   26     }
//   27     //Switch on clock on PortA and PortC
//   28     RCC::AHB1ENRPack<
//   29       RCC::AHB1ENR::GPIOCEN::Enable,
//   30       RCC::AHB1ENR::GPIOAEN::Enable
//   31         >::Set();
          CFI FunCall _ZN8RegisterILj1073887280ELj32E13ReadWriteModeN3RCC14RCCAHB1ENRBaseEJ10FieldValueI26RCC_AHB1ENR_GPIOCEN_ValuesINS1_7AHB1ENRELj2ELj1ES0_S2_ES2_Lj1EvES3_I26RCC_AHB1ENR_GPIOAEN_ValuesIS5_Lj0ELj1ES0_S2_ES2_Lj1EvEEE3SetIS0_vEEvv
        BL       _ZN8RegisterILj1073887280ELj32E13ReadWriteModeN3RCC14RCCAHB1ENRBaseEJ10FieldValueI26RCC_AHB1ENR_GPIOCEN_ValuesINS1_7AHB1ENRELj2ELj1ES0_S2_ES2_Lj1EvES3_I26RCC_AHB1ENR_GPIOAEN_ValuesIS5_Lj0ELj1ES0_S2_ES2_Lj1EvEEE3SetIS0_vEEvv
//   32 
//   33     RCC::APB2ENR::SYSCFGEN::Enable::Set();
          CFI FunCall _ZN14FieldValueBaseI25RCC_AHB1ENR_DMA2EN_ValuesIN3RCC7APB2ENRELj14ELj1E13ReadWriteModeNS1_14RCCAPB2ENRBaseEES4_Lj1EE3SetIS3_vEEvv
        BL       _ZN14FieldValueBaseI25RCC_AHB1ENR_DMA2EN_ValuesIN3RCC7APB2ENRELj14ELj1E13ReadWriteModeNS1_14RCCAPB2ENRBaseEES4_Lj1EE3SetIS3_vEEvv
//   34 
//   35     //LED1 on PortA.5, set PortA.5 as output
//   36     GPIOA::MODER::MODER5::Output::Set();
          CFI FunCall _ZN14FieldValueBaseI26GPIOA_MODER_MODER15_ValuesIN5GPIOA5MODERELj10ELj2E13ReadWriteModeNS1_14GPIOAMODERBaseEES4_Lj1EE3SetIS3_vEEvv
        BL       _ZN14FieldValueBaseI26GPIOA_MODER_MODER15_ValuesIN5GPIOA5MODERELj10ELj2E13ReadWriteModeNS1_14GPIOAMODERBaseEES4_Lj1EE3SetIS3_vEEvv
//   37 
//   38     /* LED2 on PortC.9, LED3 on PortC.8, LED4 on PortC.5 so set PortC.5,8,9 as output */
//   39     GPIOC::MODERPack<
//   40       GPIOC::MODER::MODER5::Output,
//   41       GPIOC::MODER::MODER8::Output,
//   42       GPIOC::MODER::MODER9::Output
//   43         >::Set();
          CFI FunCall _ZN8RegisterILj1073874944ELj32E13ReadWriteModeN5GPIOC14GPIOCMODERBaseEJ10FieldValueI26GPIOC_MODER_MODER15_ValuesINS1_5MODERELj10ELj2ES0_S2_ES2_Lj1EvES3_IS4_IS5_Lj16ELj2ES0_S2_ES2_Lj1EvES3_IS4_IS5_Lj18ELj2ES0_S2_ES2_Lj1EvEEE3SetIS0_vEEvv
        BL       _ZN8RegisterILj1073874944ELj32E13ReadWriteModeN5GPIOC14GPIOCMODERBaseEJ10FieldValueI26GPIOC_MODER_MODER15_ValuesINS1_5MODERELj10ELj2ES0_S2_ES2_Lj1EvES3_IS4_IS5_Lj16ELj2ES0_S2_ES2_Lj1EvES3_IS4_IS5_Lj18ELj2ES0_S2_ES2_Lj1EvEEE3SetIS0_vEEvv
//   44     // Potentiometer on Port A0
//   45     GPIOA::MODER::MODER0::Analog::Set();
          CFI FunCall _ZN14FieldValueBaseI26GPIOA_MODER_MODER15_ValuesIN5GPIOA5MODERELj0ELj2E13ReadWriteModeNS1_14GPIOAMODERBaseEES4_Lj3EE3SetIS3_vEEvv
        BL       _ZN14FieldValueBaseI26GPIOA_MODER_MODER15_ValuesIN5GPIOA5MODERELj0ELj2E13ReadWriteModeNS1_14GPIOAMODERBaseEES4_Lj3EE3SetIS3_vEEvv
//   46     // RCC on ADC
//   47     RCC::APB2ENR::ADC1EN::Enable::Set();
          CFI FunCall _ZN14FieldValueBaseI25RCC_AHB1ENR_DMA2EN_ValuesIN3RCC7APB2ENRELj8ELj1E13ReadWriteModeNS1_14RCCAPB2ENRBaseEES4_Lj1EE3SetIS3_vEEvv
        BL       _ZN14FieldValueBaseI25RCC_AHB1ENR_DMA2EN_ValuesIN3RCC7APB2ENRELj8ELj1E13ReadWriteModeNS1_14RCCAPB2ENRBaseEES4_Lj1EE3SetIS3_vEEvv
//   48     // RCC on DMA
//   49     RCC::AHB1ENR::DMA2EN::Enable::Set();
          CFI FunCall _ZN14FieldValueBaseI25RCC_AHB1ENR_DMA2EN_ValuesIN3RCC7AHB1ENRELj22ELj1E13ReadWriteModeNS1_14RCCAHB1ENRBaseEES4_Lj1EE3SetIS3_vEEvv
        BL       _ZN14FieldValueBaseI25RCC_AHB1ENR_DMA2EN_ValuesIN3RCC7AHB1ENRELj22ELj1E13ReadWriteModeNS1_14RCCAHB1ENRBaseEES4_Lj1EE3SetIS3_vEEvv
//   50     // RCC on USART2
//   51     RCC::APB1ENR::USART2EN::Enable::Set();
          CFI FunCall _ZN14FieldValueBaseI25RCC_AHB1ENR_DMA2EN_ValuesIN3RCC7APB1ENRELj17ELj1E13ReadWriteModeNS1_14RCCAPB1ENRBaseEES4_Lj1EE3SetIS3_vEEvv
        BL       _ZN14FieldValueBaseI25RCC_AHB1ENR_DMA2EN_ValuesIN3RCC7APB1ENRELj17ELj1E13ReadWriteModeNS1_14RCCAPB1ENRBaseEES4_Lj1EE3SetIS3_vEEvv
//   52     return 1;
        MOVS     R0,#+1         
        POP      {R1,PC}        
//   53   }
          CFI EndBlock cfiBlock12
//   54 }
//   55 
//   56 constexpr auto dt = 0.1f;
//   57 constexpr auto rc = 5.0f;
//   58 constexpr auto offset = 0.0f;
//   59 constexpr auto gain = 0.000806206f;
//   60 /*
//   61 AdcDmaDataProvider adc;
//   62 DigitalFilter<float, dt, rc> digitalFloatFilter;
//   63 Voltage<gain, offset> voltage(static_cast<IDataProvider&>(adc));
//   64 FloatDataStorage filteredVoltage;
//   65 LEDindication ledIndication;
//   66 Usart usart;
//   67 
//   68 MeasurementTask measurementTask(digitalFloatFilter, voltage, adc, ledIndication, filteredVoltage);
//   69 BluetoothTask bluetoothTask(filteredVoltage, usart);
//   70 */

        SECTION `.text`:CODE:NOROOT(1)
          CFI Block cfiBlock13 Using cfiCommon0
          CFI Function main
          CFI NoCalls
        THUMB
//   71 int main()
//   72 {
//   73   /*
//   74   USART2::CR1::UE::Enable::Set();
//   75   USART2::CR1::TE::Enable::Set();
//   76   using namespace OsWrapper;
//   77   Rtos::CreateThread(measurementTask, "MeasurementTask", ThreadPriority::priorityMax);
//   78   Rtos::CreateThread(bluetoothTask, "BluetoothTask", ThreadPriority::lowest);
//   79   Rtos::Start();
//   80 */
//   81   return 0;
main:
        MOVS     R0,#+0         
        BX       LR             
//   82 }
          CFI EndBlock cfiBlock13

        SECTION `.iar_vfe_header`:DATA:NOALLOC:NOROOT(2)
        SECTION_TYPE SHT_PROGBITS, 0
        DATA
        DC32 0

        END
// 
//   4 bytes in section .data
//  40 bytes in section .rodata
// 318 bytes in section .text
// 
// 66 bytes of CODE  memory (+ 252 bytes shared)
//  0 bytes of CONST memory (+  40 bytes shared)
//  4 bytes of DATA  memory
//
//Errors: none
//Warnings: 4
