///////////////////////////////////////////////////////////////////////////////
//
// IAR ANSI C/C++ Compiler V9.30.1.335/W64 for ARM        27/Apr/2025  00:21:26
// Copyright 1999-2022 IAR Systems AB.
//
//    Cpu mode     =  thumb
//    Endian       =  little
//    Source file  =
//        D:\Documents\Other\Homework\Kolodiy\CoursePaper\source\RtosWrapper\Application\DataRepository\DataRepository.cpp
//    Command line =
//        -f
//        D:\Documents\Other\Homework\Kolodiy\CoursePaper\source\RtosWrapper\Debug\Obj\Application\DataRepository\DataRepository.o.rsp
//        (D:\Documents\Other\Homework\Kolodiy\CoursePaper\source\RtosWrapper\Application\DataRepository\DataRepository.cpp
//        -lC
//        D:\Documents\Other\Homework\Kolodiy\CoursePaper\source\RtosWrapper\Debug\List\Application\DataRepository
//        -lA
//        D:\Documents\Other\Homework\Kolodiy\CoursePaper\source\RtosWrapper\Debug\List\Application\DataRepository
//        -o
//        D:\Documents\Other\Homework\Kolodiy\CoursePaper\source\RtosWrapper\Debug\Obj\Application\DataRepository
//        --no_cse --no_unroll --no_inline --no_code_motion --no_tbaa
//        --no_clustering --no_scheduling --debug --endian=little
//        --cpu=Cortex-M4 -e --fpu=VFPv4_sp --dlib_config
//        D:\Games\Programs\IAR\arm\inc\c\DLib_Config_Normal.h -I
//        D:\Documents\Other\Homework\Kolodiy\CoursePaper\source\RtosWrapper\Rtos\
//        -I
//        D:\Documents\Other\Homework\Kolodiy\CoursePaper\source\RtosWrapper\Rtos\wrapper\
//        -I
//        D:\Documents\Other\Homework\Kolodiy\CoursePaper\source\RtosWrapper\Rtos\wrapper\FreeRtos\
//        -I
//        D:\Documents\Other\Homework\Kolodiy\CoursePaper\source\RtosWrapper\Rtos\FreeRtos\
//        -I
//        D:\Documents\Other\Homework\Kolodiy\CoursePaper\source\RtosWrapper\Rtos\FreeRtos\include\
//        -I
//        D:\Documents\Other\Homework\Kolodiy\CoursePaper\source\RtosWrapper\Rtos\FreeRtos\portable\
//        -I
//        D:\Documents\Other\Homework\Kolodiy\CoursePaper\source\RtosWrapper\Rtos\FreeRtos\portable\Common\
//        -I
//        D:\Documents\Other\Homework\Kolodiy\CoursePaper\source\RtosWrapper\Rtos\FreeRtos\portable\IAR\
//        -I
//        D:\Documents\Other\Homework\Kolodiy\CoursePaper\source\RtosWrapper\Rtos\FreeRtos\portable\IAR\ARM_CM4F\
//        -I
//        D:\Documents\Other\Homework\Kolodiy\CoursePaper\source\RtosWrapper\Rtos\FreeRtos\portable\MemMang\
//        -I
//        D:\Documents\Other\Homework\Kolodiy\CoursePaper\source\RtosWrapper\MyTasks\
//        -I
//        D:\Documents\Other\Homework\Kolodiy\CoursePaper\source\RtosWrapper\Common\
//        -I
//        D:\Documents\Other\Homework\Kolodiy\CoursePaper\source\RtosWrapper\CMSIS\
//        -I
//        D:\Documents\Other\Homework\Kolodiy\CoursePaper\source\RtosWrapper\Application\
//        -I
//        D:\Documents\Other\Homework\Kolodiy\CoursePaper\source\RtosWrapper\Application\Diagnostic\
//        -I
//        D:\Documents\Other\Homework\Kolodiy\CoursePaper\source\RtosWrapper\AHardware\
//        -I
//        D:\Documents\Other\Homework\Kolodiy\CoursePaper\source\RtosWrapper\AHardware\GpioPort\
//        -I
//        D:\Documents\Other\Homework\Kolodiy\CoursePaper\source\RtosWrapper\AHardware\IrqController\
//        -I
//        D:\Documents\Other\Homework\Kolodiy\CoursePaper\source\RtosWrapper\..\CortexLib\AbstractHardware\Pin\
//        -I
//        D:\Documents\Other\Homework\Kolodiy\CoursePaper\source\RtosWrapper\..\CortexLib\AbstractHardware\Registers\STM32F411\FieldValues\
//        -I
//        D:\Documents\Other\Homework\Kolodiy\CoursePaper\source\RtosWrapper\..\CortexLib\AbstractHardware\Registers\STM32F411\
//        -I
//        D:\Documents\Other\Homework\Kolodiy\CoursePaper\source\RtosWrapper\..\CortexLib\AbstractHardware\Registers\
//        -I
//        D:\Documents\Other\Homework\Kolodiy\CoursePaper\source\RtosWrapper\..\CortexLib\AbstractHardware\Port\
//        -I
//        D:\Documents\Other\Homework\Kolodiy\CoursePaper\source\RtosWrapper\..\CortexLib\AbstractHardware\Atomic\
//        -I
//        D:\Documents\Other\Homework\Kolodiy\CoursePaper\source\RtosWrapper\..\CortexLib\Common\
//        -I
//        D:\Documents\Other\Homework\Kolodiy\CoursePaper\source\RtosWrapper\..\CortexLib\Common\Singleton\
//        -I
//        D:\Documents\Other\Homework\Kolodiy\CoursePaper\source\RtosWrapper\..\CortexLib\Common\RomObject\
//        -I
//        D:\Documents\Other\Homework\Kolodiy\CoursePaper\source\RtosWrapper\Application\AdcDmaDataProvider\
//        -I
//        D:\Documents\Other\Homework\Kolodiy\CoursePaper\source\RtosWrapper\Application\AdcDmaDataProvider\Contracts\
//        -I
//        D:\Documents\Other\Homework\Kolodiy\CoursePaper\source\RtosWrapper\Application\DataRepository\
//        -I
//        D:\Documents\Other\Homework\Kolodiy\CoursePaper\source\RtosWrapper\Application\DataRepository\Contracts\
//        -I
//        D:\Documents\Other\Homework\Kolodiy\CoursePaper\source\RtosWrapper\Application\DigitalFilter\
//        -I
//        D:\Documents\Other\Homework\Kolodiy\CoursePaper\source\RtosWrapper\Application\DigitalFilter\Contracts\
//        -I
//        D:\Documents\Other\Homework\Kolodiy\CoursePaper\source\RtosWrapper\Application\Formatter\
//        -I
//        D:\Documents\Other\Homework\Kolodiy\CoursePaper\source\RtosWrapper\Application\Formatter\Contracts\
//        -I
//        D:\Documents\Other\Homework\Kolodiy\CoursePaper\source\RtosWrapper\Application\Leds\
//        -I
//        D:\Documents\Other\Homework\Kolodiy\CoursePaper\source\RtosWrapper\Application\Leds\Contracts\
//        -I
//        D:\Documents\Other\Homework\Kolodiy\CoursePaper\source\RtosWrapper\Application\Usart\
//        -I
//        D:\Documents\Other\Homework\Kolodiy\CoursePaper\source\RtosWrapper\Application\Usart\Contracts\
//        -I
//        D:\Documents\Other\Homework\Kolodiy\CoursePaper\source\RtosWrapper\Application\Voltage\
//        -I
//        D:\Documents\Other\Homework\Kolodiy\CoursePaper\source\RtosWrapper\Application\Voltage\Contracts\
//        -I
//        D:\Documents\Other\Homework\Kolodiy\CoursePaper\source\RtosWrapper\Tasks\
//        -I
//        D:\Documents\Other\Homework\Kolodiy\CoursePaper\source\RtosWrapper\Tasks\Contracts\
//        -On --c++ --no_exceptions --no_rtti) --dependencies=n
//        D:\Documents\Other\Homework\Kolodiy\CoursePaper\source\RtosWrapper\Debug\Obj\Application\DataRepository\DataRepository.o.d
//    Locale       =  C
//    List file    =
//        D:\Documents\Other\Homework\Kolodiy\CoursePaper\source\RtosWrapper\Debug\List\Application\DataRepository\DataRepository.s
//
///////////////////////////////////////////////////////////////////////////////

        RTMODEL "__CPP_Exceptions", "Disabled"
        RTMODEL "__CPP_Language", "C++14"
        RTMODEL "__CPP_Library", "DLib"
        RTMODEL "__CPP_Runtime", "1"
        RTMODEL "__SystemLibrary", "DLib"
        AAPCS BASE,INTERWORK,VFP
        PRESERVE8
        REQUIRE8

        #define SHT_PROGBITS 0x1

        EXTERN _ZTVN10__cxxabiv117__class_type_infoE
        EXTERN _ZTVN10__cxxabiv121__vmi_class_type_infoE

        PUBLIC _ZN14DataRepository11UpdateValueEf
        PUBLIC _ZN14DataRepository19UpdateFilteredValueEf
        PUBLIC _ZN14DataRepositoryC1Ev
        PUBLIC _ZN14DataRepositoryC2Ev
        PUBLIC _ZN22IDataRepositoryUpdaterC1Ev
        PUBLIC _ZN22IDataRepositoryUpdaterC2Ev
        PUBLIC _ZN23IDataRepositoryProviderC1Ev
        PUBLIC _ZN23IDataRepositoryProviderC2Ev
        PUBLIC _ZNK14DataRepository16GetFilteredValueEv
        PUBLIC _ZNK14DataRepository8GetValueEv
        PUBLIC _ZTI14DataRepository
        PUBLIC _ZTI22IDataRepositoryUpdater
        PUBLIC _ZTI23IDataRepositoryProvider
        PUBLIC _ZTS14DataRepository
        PUBLIC _ZTS22IDataRepositoryUpdater
        PUBLIC _ZTS23IDataRepositoryProvider
        PUBLIC _ZTV14DataRepository
        PUBLIC _ZThn4_N14DataRepository11UpdateValueEf
        PUBLIC _ZThn4_N14DataRepository19UpdateFilteredValueEf
        
          CFI Names cfiNames0
          CFI StackFrame CFA R13 DATA
          CFI Resource R0:32, R1:32, R2:32, R3:32, R4:32, R5:32, R6:32, R7:32
          CFI Resource R8:32, R9:32, R10:32, R11:32, R12:32, R13:32, R14:32
          CFI Resource D0:64, D1:64, D2:64, D3:64, D4:64, D5:64, D6:64, D7:64
          CFI Resource D8:64, D9:64, D10:64, D11:64, D12:64, D13:64, D14:64
          CFI Resource D15:64
          CFI EndNames cfiNames0
        
          CFI Common cfiCommon0 Using cfiNames0
          CFI CodeAlign 2
          CFI DataAlign 4
          CFI ReturnAddress R14 CODE
          CFI CFA R13+0
          CFI R0 Undefined
          CFI R1 Undefined
          CFI R2 Undefined
          CFI R3 Undefined
          CFI R4 SameValue
          CFI R5 SameValue
          CFI R6 SameValue
          CFI R7 SameValue
          CFI R8 SameValue
          CFI R9 SameValue
          CFI R10 SameValue
          CFI R11 SameValue
          CFI R12 Undefined
          CFI R14 SameValue
          CFI D0 Undefined
          CFI D1 Undefined
          CFI D2 Undefined
          CFI D3 Undefined
          CFI D4 Undefined
          CFI D5 Undefined
          CFI D6 Undefined
          CFI D7 Undefined
          CFI D8 SameValue
          CFI D9 SameValue
          CFI D10 SameValue
          CFI D11 SameValue
          CFI D12 SameValue
          CFI D13 SameValue
          CFI D14 SameValue
          CFI D15 SameValue
          CFI EndCommon cfiCommon0
        
// D:\Documents\Other\Homework\Kolodiy\CoursePaper\source\RtosWrapper\Application\DataRepository\DataRepository.cpp
//    1 #include "DataRepository.hpp"   // for DataRepository

        SECTION `.text`:CODE:REORDER:NOROOT(1)
        SECTION_GROUP _ZN23IDataRepositoryProviderC2Ev
          CFI Block cfiBlock0 Using cfiCommon0
          CFI Function _ZN23IDataRepositoryProviderC2Ev
        THUMB
// __vfp IDataRepositoryProvider::subobject IDataRepositoryProvider() noexcept
_ZN23IDataRepositoryProviderC2Ev:
        PUSH     {R4,LR}        
          CFI R14 Frame(CFA, -4)
          CFI R4 Frame(CFA, -8)
          CFI CFA R13+8
        MOVS     R4,R0          
        MOVS     R0,R4          
          CFI FunCall _ZN23IDataRepositoryProviderC1Ev
        BL       _ZN23IDataRepositoryProviderC1Ev
        POP      {R4,PC}        
          CFI EndBlock cfiBlock0
//    2 

        SECTION `.text`:CODE:NOROOT(1)
          CFI Block cfiBlock1 Using cfiCommon0
          CFI Function _ZN14DataRepositoryC2Ev
        THUMB
// __vfp DataRepository::subobject DataRepository()
_ZN14DataRepositoryC2Ev:
        PUSH     {R4,LR}        
          CFI R14 Frame(CFA, -4)
          CFI R4 Frame(CFA, -8)
          CFI CFA R13+8
        MOVS     R4,R0          
        MOVS     R0,R4          
          CFI FunCall _ZN14DataRepositoryC1Ev
        BL       _ZN14DataRepositoryC1Ev
        POP      {R4,PC}        
          CFI EndBlock cfiBlock1

        SECTION `.text`:CODE:NOROOT(1)
          CFI Block cfiBlock2 Using cfiCommon0
          CFI Function _ZN14DataRepositoryC1Ev
        THUMB
//    3 DataRepository :: DataRepository()
//    4 {
_ZN14DataRepositoryC1Ev:
        PUSH     {R4,LR}        
          CFI R14 Frame(CFA, -4)
          CFI R4 Frame(CFA, -8)
          CFI CFA R13+8
        MOVS     R4,R0          
        MOVS     R0,R4          
          CFI FunCall _ZN23IDataRepositoryProviderC2Ev
        BL       _ZN23IDataRepositoryProviderC2Ev
        ADDS     R0,R4,#+4      
          CFI FunCall _ZN22IDataRepositoryUpdaterC2Ev
        BL       _ZN22IDataRepositoryUpdaterC2Ev
        LDR.N    R0,??DataTable1
        ADDS     R1,R0,#+8      
        STR      R1,[R4, #+0]   
        ADDS     R0,R0,#+32     
        STR      R0,[R4, #+4]   
//    5 }
        MOVS     R0,R4          
        POP      {R4,PC}        
          CFI EndBlock cfiBlock2

        SECTION `.text`:CODE:NOROOT(2)
        SECTION_TYPE SHT_PROGBITS, 0
        DATA
??DataTable1:
        DATA32
        DC32     _ZTV14DataRepository
//    6 

        SECTION `.text`:CODE:NOROOT(1)
          CFI Block cfiBlock3 Using cfiCommon0
          CFI Function _ZNK14DataRepository8GetValueEv
          CFI NoCalls
        THUMB
//    7 float DataRepository :: GetValue() const
//    8 {
//    9   return mValue;
_ZNK14DataRepository8GetValueEv:
        VLDR     S0,[R0, #+8]   
        BX       LR             
//   10 }
          CFI EndBlock cfiBlock3
//   11 

        SECTION `.text`:CODE:NOROOT(1)
          CFI Block cfiBlock4 Using cfiCommon0
          CFI Function _ZNK14DataRepository16GetFilteredValueEv
          CFI NoCalls
        THUMB
//   12 float DataRepository :: GetFilteredValue() const
//   13 {
//   14   return mFilteredValue;
_ZNK14DataRepository16GetFilteredValueEv:
        VLDR     S0,[R0, #+12]  
        BX       LR             
//   15 }
          CFI EndBlock cfiBlock4

        SECTION `.text`:CODE:NOROOT(1)
          CFI Block cfiBlock5 Using cfiCommon0
          CFI Function _ZThn4_N14DataRepository11UpdateValueEf
          CFI TailCall _ZN14DataRepository11UpdateValueEf
        THUMB
// __vfp float DataRepository::UpdateValue for IDataRepositoryUpdater/-4/(float)
_ZThn4_N14DataRepository11UpdateValueEf:
        SUBS     R0,R0,#+4      
          CFI EndBlock cfiBlock5
        REQUIRE _ZN14DataRepository11UpdateValueEf
        ;; // Fall through to label DataRepository::UpdateValue(float)
//   16 

        SECTION `.text`:CODE:NOROOT(1)
          CFI Block cfiBlock6 Using cfiCommon0
          CFI Function _ZN14DataRepository11UpdateValueEf
          CFI NoCalls
        THUMB
//   17 float DataRepository :: UpdateValue(float value)
//   18 {
//   19   return mValue = value;
_ZN14DataRepository11UpdateValueEf:
        VSTR     S0,[R0, #+8]   
        VLDR     S0,[R0, #+8]   
        BX       LR             
//   20 }
          CFI EndBlock cfiBlock6

        SECTION `.text`:CODE:NOROOT(1)
          CFI Block cfiBlock7 Using cfiCommon0
          CFI Function _ZThn4_N14DataRepository19UpdateFilteredValueEf
          CFI TailCall _ZN14DataRepository19UpdateFilteredValueEf
        THUMB
// __vfp float DataRepository::UpdateFilteredValue for IDataRepositoryUpdater/-4/(float)
_ZThn4_N14DataRepository19UpdateFilteredValueEf:
        SUBS     R0,R0,#+4      
          CFI EndBlock cfiBlock7
        REQUIRE _ZN14DataRepository19UpdateFilteredValueEf
        ;; // Fall through to label DataRepository::UpdateFilteredValue(float)
//   21 

        SECTION `.text`:CODE:NOROOT(1)
          CFI Block cfiBlock8 Using cfiCommon0
          CFI Function _ZN14DataRepository19UpdateFilteredValueEf
          CFI NoCalls
        THUMB
//   22 float DataRepository :: UpdateFilteredValue(float filteredValue)
//   23 {
//   24   return mFilteredValue = filteredValue;
_ZN14DataRepository19UpdateFilteredValueEf:
        VSTR     S0,[R0, #+12]  
        VLDR     S0,[R0, #+12]  
        BX       LR             
//   25 }
          CFI EndBlock cfiBlock8

        SECTION `.text`:CODE:REORDER:NOROOT(1)
        SECTION_GROUP _ZN23IDataRepositoryProviderC1Ev
          CFI Block cfiBlock9 Using cfiCommon0
          CFI Function _ZN23IDataRepositoryProviderC1Ev
          CFI NoCalls
        THUMB
// __vfp IDataRepositoryProvider::IDataRepositoryProvider() noexcept
_ZN23IDataRepositoryProviderC1Ev:
        BX       LR             
          CFI EndBlock cfiBlock9

        SECTION `.text`:CODE:REORDER:NOROOT(1)
        SECTION_GROUP _ZN22IDataRepositoryUpdaterC2Ev
          CFI Block cfiBlock10 Using cfiCommon0
          CFI Function _ZN22IDataRepositoryUpdaterC2Ev
        THUMB
// __vfp IDataRepositoryUpdater::subobject IDataRepositoryUpdater() noexcept
_ZN22IDataRepositoryUpdaterC2Ev:
        PUSH     {R4,LR}        
          CFI R14 Frame(CFA, -4)
          CFI R4 Frame(CFA, -8)
          CFI CFA R13+8
        MOVS     R4,R0          
        MOVS     R0,R4          
          CFI FunCall _ZN22IDataRepositoryUpdaterC1Ev
        BL       _ZN22IDataRepositoryUpdaterC1Ev
        POP      {R4,PC}        
          CFI EndBlock cfiBlock10

        SECTION `.text`:CODE:REORDER:NOROOT(1)
        SECTION_GROUP _ZN22IDataRepositoryUpdaterC1Ev
          CFI Block cfiBlock11 Using cfiCommon0
          CFI Function _ZN22IDataRepositoryUpdaterC1Ev
          CFI NoCalls
        THUMB
// __vfp IDataRepositoryUpdater::IDataRepositoryUpdater() noexcept
_ZN22IDataRepositoryUpdaterC1Ev:
        BX       LR             
          CFI EndBlock cfiBlock11

        SECTION `.iar_vfe_vtableinfo_ZTV14DataRepository`:DATA:NOALLOC:NOROOT(2)
        SECTION_TYPE SHT_PROGBITS, 0
        SECTION_GROUP _ZTV14DataRepository
        DATA
        DC32    _ZTV14DataRepository
        DC32    10
        DC32    3
        DC32    _ZTI14DataRepository
        DC32    1
        DC32    2
        DC32    0
        DC32    _ZTI22IDataRepositoryUpdater
        DC32    0
        DC32    1
        DC32    _ZTI14DataRepository
        DC32    1
        DC32    8
        DC32    0
        DC32    _ZTI23IDataRepositoryProvider
        DC32    0
        DC32    1
        DC32    _ZTI14DataRepository
        DC32    1
        DC32    2
        DC32    0

        SECTION `.iar_vfe_header`:DATA:NOALLOC:NOROOT(2)
        SECTION_TYPE SHT_PROGBITS, 0
        DATA
        DC32 0

        SECTION `.rodata`:CONST:REORDER:NOROOT(2)
        SECTION_GROUP _ZTV14DataRepository
        DATA
// __absolute void (*const DataRepository::__vtbl[10])()
_ZTV14DataRepository:
        DATA32
        DC32 0x0, _ZTI14DataRepository, _ZNK14DataRepository8GetValueEv
        DC32 _ZNK14DataRepository16GetFilteredValueEv
        DC32 _ZN14DataRepository11UpdateValueEf
        DC32 _ZN14DataRepository19UpdateFilteredValueEf, 0xffff'fffc
        DC32 _ZTI14DataRepository, _ZThn4_N14DataRepository11UpdateValueEf
        DC32 _ZThn4_N14DataRepository19UpdateFilteredValueEf

        SECTION `.rodata`:CONST:REORDER:NOROOT(2)
        SECTION_GROUP _ZTI23IDataRepositoryProvider
        DATA
// __absolute __class_type_info const <Typeinfo for IDataRepositoryProvider>
_ZTI23IDataRepositoryProvider:
        DATA32
        DC32 _ZTVN10__cxxabiv117__class_type_infoE + 0x8
        DC32 _ZTS23IDataRepositoryProvider

        SECTION `.rodata`:CONST:REORDER:NOROOT(2)
        SECTION_GROUP _ZTI22IDataRepositoryUpdater
        DATA
// __absolute __class_type_info const <Typeinfo for IDataRepositoryUpdater>
_ZTI22IDataRepositoryUpdater:
        DATA32
        DC32 _ZTVN10__cxxabiv117__class_type_infoE + 0x8
        DC32 _ZTS22IDataRepositoryUpdater

        SECTION `.rodata`:CONST:REORDER:NOROOT(2)
        SECTION_GROUP _ZTI14DataRepository
        DATA
// __absolute __vmi_class_type_info const <Typeinfo for DataRepository>
_ZTI14DataRepository:
        DATA32
        DC32 _ZTVN10__cxxabiv121__vmi_class_type_infoE + 0x8
        DC32 _ZTS14DataRepository, 0, 2, _ZTI23IDataRepositoryProvider, 2
        DC32 _ZTI22IDataRepositoryUpdater, 1'026

        SECTION `.rodata`:CONST:REORDER:NOROOT(2)
        SECTION_GROUP _ZTS23IDataRepositoryProvider
        DATA
// __absolute char const <Typeinfo name for IDataRepositoryProvider>[26]
_ZTS23IDataRepositoryProvider:
        DATA8
        DC8 "23IDataRepositoryProvider"
        DATA16
        DS8 2

        SECTION `.rodata`:CONST:REORDER:NOROOT(2)
        SECTION_GROUP _ZTS22IDataRepositoryUpdater
        DATA
// __absolute char const <Typeinfo name for IDataRepositoryUpdater>[25]
_ZTS22IDataRepositoryUpdater:
        DATA8
        DC8 "22IDataRepositoryUpdater"
        DATA
        DS8 3

        SECTION `.rodata`:CONST:REORDER:NOROOT(2)
        SECTION_GROUP _ZTS14DataRepository
        DATA
// __absolute char const <Typeinfo name for DataRepository>[17]
_ZTS14DataRepository:
        DATA8
        DC8 "14DataRepository"
        DATA
        DS8 3

        END
// 
// 164 bytes in section .rodata
// 112 bytes in section .text
// 
// 84 bytes of CODE  memory (+  28 bytes shared)
//  0 bytes of CONST memory (+ 164 bytes shared)
//
//Errors: none
//Warnings: none
