///////////////////////////////////////////////////////////////////////////////
//
// IAR ANSI C/C++ Compiler V9.30.1.335/W64 for ARM        27/Apr/2025  21:40:50
// Copyright 1999-2022 IAR Systems AB.
//
//    Cpu mode     =  thumb
//    Endian       =  little
//    Source file  =
//        D:\Documents\Homework\GitLab\CoursePaper\source\RtosWrapper\Application\Usart\Usart.cpp
//        [UTF-8]
//    Command line =
//        -f
//        D:\Documents\Homework\GitLab\CoursePaper\source\RtosWrapper\Debug\Obj\Application\Usart\Usart.o.rsp
//        (D:\Documents\Homework\GitLab\CoursePaper\source\RtosWrapper\Application\Usart\Usart.cpp
//        -lC
//        D:\Documents\Homework\GitLab\CoursePaper\source\RtosWrapper\Debug\List\Application\Usart
//        -lA
//        D:\Documents\Homework\GitLab\CoursePaper\source\RtosWrapper\Debug\List\Application\Usart
//        -o
//        D:\Documents\Homework\GitLab\CoursePaper\source\RtosWrapper\Debug\Obj\Application\Usart
//        --no_cse --no_unroll --no_inline --no_code_motion --no_tbaa
//        --no_clustering --no_scheduling --debug --endian=little
//        --cpu=Cortex-M4 -e --fpu=VFPv4_sp --dlib_config
//        D:\Programs\IAR\arm\inc\c\DLib_Config_Normal.h -I
//        D:\Documents\Homework\GitLab\CoursePaper\source\RtosWrapper\Rtos\ -I
//        D:\Documents\Homework\GitLab\CoursePaper\source\RtosWrapper\Rtos\wrapper\
//        -I
//        D:\Documents\Homework\GitLab\CoursePaper\source\RtosWrapper\Rtos\wrapper\FreeRtos\
//        -I
//        D:\Documents\Homework\GitLab\CoursePaper\source\RtosWrapper\Rtos\FreeRtos\
//        -I
//        D:\Documents\Homework\GitLab\CoursePaper\source\RtosWrapper\Rtos\FreeRtos\include\
//        -I
//        D:\Documents\Homework\GitLab\CoursePaper\source\RtosWrapper\Rtos\FreeRtos\portable\
//        -I
//        D:\Documents\Homework\GitLab\CoursePaper\source\RtosWrapper\Rtos\FreeRtos\portable\Common\
//        -I
//        D:\Documents\Homework\GitLab\CoursePaper\source\RtosWrapper\Rtos\FreeRtos\portable\IAR\
//        -I
//        D:\Documents\Homework\GitLab\CoursePaper\source\RtosWrapper\Rtos\FreeRtos\portable\IAR\ARM_CM4F\
//        -I
//        D:\Documents\Homework\GitLab\CoursePaper\source\RtosWrapper\Rtos\FreeRtos\portable\MemMang\
//        -I
//        D:\Documents\Homework\GitLab\CoursePaper\source\RtosWrapper\MyTasks\
//        -I
//        D:\Documents\Homework\GitLab\CoursePaper\source\RtosWrapper\Common\
//        -I D:\Documents\Homework\GitLab\CoursePaper\source\RtosWrapper\CMSIS\
//        -I
//        D:\Documents\Homework\GitLab\CoursePaper\source\RtosWrapper\Application\
//        -I
//        D:\Documents\Homework\GitLab\CoursePaper\source\RtosWrapper\Application\Diagnostic\
//        -I
//        D:\Documents\Homework\GitLab\CoursePaper\source\RtosWrapper\AHardware\
//        -I
//        D:\Documents\Homework\GitLab\CoursePaper\source\RtosWrapper\AHardware\GpioPort\
//        -I
//        D:\Documents\Homework\GitLab\CoursePaper\source\RtosWrapper\AHardware\IrqController\
//        -I
//        D:\Documents\Homework\GitLab\CoursePaper\source\RtosWrapper\..\CortexLib\AbstractHardware\Pin\
//        -I
//        D:\Documents\Homework\GitLab\CoursePaper\source\RtosWrapper\..\CortexLib\AbstractHardware\Registers\STM32F411\FieldValues\
//        -I
//        D:\Documents\Homework\GitLab\CoursePaper\source\RtosWrapper\..\CortexLib\AbstractHardware\Registers\STM32F411\
//        -I
//        D:\Documents\Homework\GitLab\CoursePaper\source\RtosWrapper\..\CortexLib\AbstractHardware\Registers\
//        -I
//        D:\Documents\Homework\GitLab\CoursePaper\source\RtosWrapper\..\CortexLib\AbstractHardware\Port\
//        -I
//        D:\Documents\Homework\GitLab\CoursePaper\source\RtosWrapper\..\CortexLib\AbstractHardware\Atomic\
//        -I
//        D:\Documents\Homework\GitLab\CoursePaper\source\RtosWrapper\..\CortexLib\Common\
//        -I
//        D:\Documents\Homework\GitLab\CoursePaper\source\RtosWrapper\..\CortexLib\Common\Singleton\
//        -I
//        D:\Documents\Homework\GitLab\CoursePaper\source\RtosWrapper\..\CortexLib\Common\RomObject\
//        -I
//        D:\Documents\Homework\GitLab\CoursePaper\source\RtosWrapper\Application\AdcDmaDataProvider\
//        -I
//        D:\Documents\Homework\GitLab\CoursePaper\source\RtosWrapper\Application\AdcDmaDataProvider\Contracts\
//        -I
//        D:\Documents\Homework\GitLab\CoursePaper\source\RtosWrapper\Application\DataRepository\
//        -I
//        D:\Documents\Homework\GitLab\CoursePaper\source\RtosWrapper\Application\DataRepository\Contracts\
//        -I
//        D:\Documents\Homework\GitLab\CoursePaper\source\RtosWrapper\Application\DigitalFilter\
//        -I
//        D:\Documents\Homework\GitLab\CoursePaper\source\RtosWrapper\Application\DigitalFilter\Contracts\
//        -I
//        D:\Documents\Homework\GitLab\CoursePaper\source\RtosWrapper\Application\Formatter\
//        -I
//        D:\Documents\Homework\GitLab\CoursePaper\source\RtosWrapper\Application\Formatter\Contracts\
//        -I
//        D:\Documents\Homework\GitLab\CoursePaper\source\RtosWrapper\Application\Leds\
//        -I
//        D:\Documents\Homework\GitLab\CoursePaper\source\RtosWrapper\Application\Leds\Contracts\
//        -I
//        D:\Documents\Homework\GitLab\CoursePaper\source\RtosWrapper\Application\Usart\
//        -I
//        D:\Documents\Homework\GitLab\CoursePaper\source\RtosWrapper\Application\Usart\Contracts\
//        -I
//        D:\Documents\Homework\GitLab\CoursePaper\source\RtosWrapper\Application\Voltage\
//        -I
//        D:\Documents\Homework\GitLab\CoursePaper\source\RtosWrapper\Application\Voltage\Contracts\
//        -I D:\Documents\Homework\GitLab\CoursePaper\source\RtosWrapper\Tasks\
//        -I
//        D:\Documents\Homework\GitLab\CoursePaper\source\RtosWrapper\Tasks\Contracts\
//        -I
//        D:\Documents\Homework\GitLab\CoursePaper\source\RtosWrapper\..\CortexLib\AbstractHardware\Registers\CortexM4\
//        -I
//        D:\Documents\Homework\GitLab\CoursePaper\source\RtosWrapper\..\CortexLib\AbstractHardware\Registers\CortexM4\FieldValues\
//        -On --c++ --no_exceptions --no_rtti --source_encoding utf8 --text_out
//        utf8 --utf8_text_in) --dependencies=n
//        D:\Documents\Homework\GitLab\CoursePaper\source\RtosWrapper\Debug\Obj\Application\Usart\Usart.o.d
//    Locale       =  C
//    List file    =
//        D:\Documents\Homework\GitLab\CoursePaper\source\RtosWrapper\Debug\List\Application\Usart\Usart.s
//
///////////////////////////////////////////////////////////////////////////////

        RTMODEL "__CPP_Exceptions", "Disabled"
        RTMODEL "__CPP_Language", "C++14"
        RTMODEL "__CPP_Library", "DLib"
        RTMODEL "__CPP_Runtime", "1"
        RTMODEL "__SystemLibrary", "DLib"
        RTMODEL "__dlib_file_descriptor", "0"
        RTMODEL "__dlib_full_locale_support", "0"
        RTMODEL "__dlib_version", "6"
        AAPCS BASE,INTERWORK,VFP
        PRESERVE8
        REQUIRE8

        #define SHT_PROGBITS 0x1

        EXTERN _ZTVN10__cxxabiv117__class_type_infoE
        EXTERN _ZTVN10__cxxabiv120__si_class_type_infoE
        EXTERN __aeabi_assert
        EXTERN __aeabi_d2uiz
        EXTERN __aeabi_ddiv
        EXTERN __aeabi_dmul
        EXTERN __aeabi_dsub
        EXTERN __aeabi_ui2d
        EXTWEAK __iar_EmptyStepPoint
        EXTERN round

        PUBLIC _ZN12RegisterBaseILj1073759236ELj32E13ReadWriteModeE5WriteIS0_vEEvj
        PUBLIC _ZN13RegisterFieldIN6USART23BRRELj0ELj4E13ReadWriteModevE3SetIS2_vEEvj
        PUBLIC _ZN13RegisterFieldIN6USART23BRRELj4ELj12E13ReadWriteModevE3SetIS2_vEEvj
        PUBLIC _ZN13RegisterFieldIN6USART23CR1ELj15ELj1E13ReadWriteModevE3GetIS2_vEEjv
        PUBLIC _ZN14FieldValueBaseI19USART2_CR1_M_ValuesIN6USART23CR1ELj12ELj1E13ReadWriteModeNS1_13USART2CR1BaseEES4_Lj0EE3SetIS3_vEEvv
        PUBLIC _ZN14FieldValueBaseI19USART2_SR_TC_ValuesIN6USART22SRELj6ELj1E13ReadWriteModeNS1_12USART2SRBaseEES4_Lj0EE3SetIS3_vEEvv
        PUBLIC _ZN14FieldValueBaseI20USART2_SR_TXE_ValuesIN6USART22SRELj7ELj1E8ReadModeNS1_12USART2SRBaseEES4_Lj1EE5IsSetIS3_vEEbv
        PUBLIC _ZN14FieldValueBaseI21USART2_CR1_PCE_ValuesIN6USART23CR1ELj10ELj1E13ReadWriteModeNS1_13USART2CR1BaseEES4_Lj0EE3SetIS3_vEEvv
        PUBLIC _ZN14FieldValueBaseI22USART2_CR2_STOP_ValuesIN6USART23CR2ELj12ELj2E13ReadWriteModeNS1_13USART2CR2BaseEES4_Lj0EE3SetIS3_vEEvv
        PUBLIC _ZN14FieldValueBaseI23GPIOA_AFRL_AFRL7_ValuesIN5GPIOA4AFRLELj12ELj4E13ReadWriteModeNS1_13GPIOAAFRLBaseEES4_Lj7EE3SetIS3_vEEvv
        PUBLIC _ZN14FieldValueBaseI23GPIOA_AFRL_AFRL7_ValuesIN5GPIOA4AFRLELj8ELj4E13ReadWriteModeNS1_13GPIOAAFRLBaseEES4_Lj7EE3SetIS3_vEEvv
        PUBLIC _ZN14FieldValueBaseI23USART2_CR1_OVER8_ValuesIN6USART23CR1ELj15ELj1E13ReadWriteModeNS1_13USART2CR1BaseEES4_Lj0EE3SetIS3_vEEvv
        PUBLIC _ZN14FieldValueBaseI23USART2_CR1_TXEIE_ValuesIN6USART23CR1ELj7ELj1E13ReadWriteModeNS1_13USART2CR1BaseEES4_Lj1EE3SetIS3_vEEvv
        PUBLIC _ZN14FieldValueBaseI26GPIOA_MODER_MODER15_ValuesIN5GPIOA5MODERELj4ELj2E13ReadWriteModeNS1_14GPIOAMODERBaseEES4_Lj2EE3SetIS3_vEEvv
        PUBLIC _ZN14FieldValueBaseI26GPIOA_MODER_MODER15_ValuesIN5GPIOA5MODERELj6ELj2E13ReadWriteModeNS1_14GPIOAMODERBaseEES4_Lj2EE3SetIS3_vEEvv
        PUBLIC _ZN5Usart11ConfigUsartEv
        PUBLIC _ZN5Usart11SendMessageESs
        PUBLIC _ZN5UsartC1Ev
        PUBLIC _ZN5UsartC2Ev
        PUBLIC _ZN6IUsartC1Ev
        PUBLIC _ZN6IUsartC2Ev
        PUBLIC _ZNKSs6lengthEv
        PUBLIC _ZNKSt13_String_allocISt18_String_base_typesIcSaIcEEE7_MysizeEv
        PUBLIC _ZNKSt13_String_allocISt18_String_base_typesIcSaIcEEE9_Get_dataEv
        PUBLIC _ZNKSt16_Compressed_pairISt11_Wrap_allocISaIcEESt11_String_valISt13_Simple_typesIcEELb1EE11_Get_secondEv
        PUBLIC _ZNSsixEj
        PUBLIC _ZNSt11_String_valISt13_Simple_typesIcEE6_MyptrEv
        PUBLIC _ZNSt13_String_allocISt18_String_base_typesIcSaIcEEE6_MyptrEv
        PUBLIC _ZNSt13_String_allocISt18_String_base_typesIcSaIcEEE9_Get_dataEv
        PUBLIC _ZNSt16_Compressed_pairISt11_Wrap_allocISaIcEESt11_String_valISt13_Simple_typesIcEELb1EE11_Get_secondEv
        PUBLIC _ZSt10_AddressofIcEPT_RS0_St17integral_constantIbLb0EE
        PUBLIC _ZSt9addressofIcEPT_RS0_
        PUBLIC _ZTI5Usart
        PUBLIC _ZTI6IUsart
        PUBLIC _ZTISt10ctype_base
        PUBLIC _ZTS5Usart
        PUBLIC _ZTS6IUsart
        PUBLIC _ZTSSt10ctype_base
        PUBLIC _ZTV5Usart
        PUBLIC _ZZN13RegisterFieldIN6USART23BRRELj0ELj4E13ReadWriteModevE3SetIS2_vEEvjEs
        PUBLIC _ZZN13RegisterFieldIN6USART23BRRELj0ELj4E13ReadWriteModevE3SetIS2_vEEvjEs_0
        PUBLIC _ZZN13RegisterFieldIN6USART23BRRELj4ELj12E13ReadWriteModevE3SetIS2_vEEvjEs
        PUBLIC _ZZN13RegisterFieldIN6USART23BRRELj4ELj12E13ReadWriteModevE3SetIS2_vEEvjEs_0
        
          CFI Names cfiNames0
          CFI StackFrame CFA R13 DATA
          CFI Resource R0:32, R1:32, R2:32, R3:32, R4:32, R5:32, R6:32, R7:32
          CFI Resource R8:32, R9:32, R10:32, R11:32, R12:32, R13:32, R14:32
          CFI Resource D0:64, D1:64, D2:64, D3:64, D4:64, D5:64, D6:64, D7:64
          CFI Resource D8:64, D9:64, D10:64, D11:64, D12:64, D13:64, D14:64
          CFI Resource D15:64
          CFI EndNames cfiNames0
        
          CFI Common cfiCommon0 Using cfiNames0
          CFI CodeAlign 2
          CFI DataAlign 4
          CFI ReturnAddress R14 CODE
          CFI CFA R13+0
          CFI R0 Undefined
          CFI R1 Undefined
          CFI R2 Undefined
          CFI R3 Undefined
          CFI R4 SameValue
          CFI R5 SameValue
          CFI R6 SameValue
          CFI R7 SameValue
          CFI R8 SameValue
          CFI R9 SameValue
          CFI R10 SameValue
          CFI R11 SameValue
          CFI R12 Undefined
          CFI R14 SameValue
          CFI D0 Undefined
          CFI D1 Undefined
          CFI D2 Undefined
          CFI D3 Undefined
          CFI D4 Undefined
          CFI D5 Undefined
          CFI D6 Undefined
          CFI D7 Undefined
          CFI D8 SameValue
          CFI D9 SameValue
          CFI D10 SameValue
          CFI D11 SameValue
          CFI D12 SameValue
          CFI D13 SameValue
          CFI D14 SameValue
          CFI D15 SameValue
          CFI EndCommon cfiCommon0
        

        SECTION `.rodata`:CONST:REORDER:NOROOT(2)
        SECTION_GROUP _ZTV5Usart
        DATA
// __absolute void (*const Usart::__vtbl[3])()
_ZTV5Usart:
        DATA32
        DC32 0x0, _ZTI5Usart, _ZN5Usart11SendMessageESs

        SECTION `.rodata`:CONST:REORDER:NOROOT(2)
        SECTION_GROUP _ZZN13RegisterFieldIN6USART23BRRELj4ELj12E13ReadWriteModevE3SetIS2_vEEvjEs
        DATA
// __absolute char const <_ZZN13RegisterFieldIN6USART23BRRELj4ELj12E13ReadWriteModevE3SetIS2_vEEvjEs>[156]
_ZZN13RegisterFieldIN6USART23BRRELj4ELj12E13ReadWriteModevE3SetIS2_vEEvjEs:
        DATA8
        DC8 0x28, 0x73, 0x69, 0x7A, 0x65, 0x20, 0x3C, 0x20
        DC8 0x73, 0x69, 0x7A, 0x65, 0x6F, 0x66, 0x28, 0x52
        DC8 0x65, 0x67, 0x54, 0x79, 0x70, 0x65, 0x29, 0x20
        DC8 0x2A, 0x20, 0x38, 0x55, 0x29, 0x20, 0x3F, 0x20
        DC8 0x28, 0x76, 0x61, 0x6C, 0x75, 0x65, 0x20, 0x3C
        DC8 0x3D, 0x20, 0x28, 0x28, 0x73, 0x74, 0x61, 0x74
        DC8 0x69, 0x63, 0x5F, 0x63, 0x61, 0x73, 0x74, 0x3C
        DC8 0x52, 0x65, 0x67, 0x54, 0x79, 0x70, 0x65, 0x3E
        DC8 0x28, 0x31, 0x55, 0x29, 0x20, 0x3C, 0x3C, 0x20
        DC8 0x73, 0x69, 0x7A, 0x65, 0x29, 0x20, 0x2D, 0x20
        DC8 0x73, 0x74, 0x61, 0x74, 0x69, 0x63, 0x5F, 0x63
        DC8 0x61, 0x73, 0x74, 0x3C, 0x52, 0x65, 0x67, 0x54
        DC8 0x79, 0x70, 0x65, 0x3E, 0x28, 0x31, 0x55, 0x29
        DC8 0x29, 0x29, 0x20, 0x3A, 0x20, 0x28, 0x76, 0x61
        DC8 0x6C, 0x75, 0x65, 0x20, 0x3C, 0x3D, 0x20, 0x73
        DC8 0x74, 0x64, 0x3A, 0x3A, 0x6E, 0x75, 0x6D, 0x65
        DC8 0x72, 0x69, 0x63, 0x5F, 0x6C, 0x69, 0x6D, 0x69
        DC8 0x74, 0x73, 0x3C, 0x52, 0x65, 0x67, 0x54, 0x79
        DC8 0x70, 0x65, 0x3E, 0x3A, 0x3A, 0x6D, 0x61, 0x78
        DC8 0x28, 0x29, 0x29, 0

        SECTION `.rodata`:CONST:REORDER:NOROOT(2)
        SECTION_GROUP _ZZN13RegisterFieldIN6USART23BRRELj4ELj12E13ReadWriteModevE3SetIS2_vEEvjEs_0
        DATA
// __absolute char const <_ZZN13RegisterFieldIN6USART23BRRELj4ELj12E13ReadWriteModevE3SetIS2_vEEvjEs_0>[103]
_ZZN13RegisterFieldIN6USART23BRRELj4ELj12E13ReadWriteModevE3SetIS2_vEEvjEs_0:
        DATA8
        DC8 0x44, 0x3A, 0x5C, 0x44, 0x6F, 0x63, 0x75, 0x6D
        DC8 0x65, 0x6E, 0x74, 0x73, 0x5C, 0x48, 0x6F, 0x6D
        DC8 0x65, 0x77, 0x6F, 0x72, 0x6B, 0x5C, 0x47, 0x69
        DC8 0x74, 0x4C, 0x61, 0x62, 0x5C, 0x43, 0x6F, 0x75
        DC8 0x72, 0x73, 0x65, 0x50, 0x61, 0x70, 0x65, 0x72
        DC8 0x5C, 0x73, 0x6F, 0x75, 0x72, 0x63, 0x65, 0x5C
        DC8 0x43, 0x6F, 0x72, 0x74, 0x65, 0x78, 0x4C, 0x69
        DC8 0x62, 0x5C, 0x41, 0x62, 0x73, 0x74, 0x72, 0x61
        DC8 0x63, 0x74, 0x48, 0x61, 0x72, 0x64, 0x77, 0x61
        DC8 0x72, 0x65, 0x5C, 0x52, 0x65, 0x67, 0x69, 0x73
        DC8 0x74, 0x65, 0x72, 0x73, 0x5C, 0x72, 0x65, 0x67
        DC8 0x69, 0x73, 0x74, 0x65, 0x72, 0x66, 0x69, 0x65
        DC8 0x6C, 0x64, 0x2E, 0x68, 0x70, 0x70, 0
        DS8 1

        SECTION `.rodata`:CONST:REORDER:NOROOT(2)
        SECTION_GROUP _ZZN13RegisterFieldIN6USART23BRRELj0ELj4E13ReadWriteModevE3SetIS2_vEEvjEs
        DATA
// __absolute char const <_ZZN13RegisterFieldIN6USART23BRRELj0ELj4E13ReadWriteModevE3SetIS2_vEEvjEs>[156]
_ZZN13RegisterFieldIN6USART23BRRELj0ELj4E13ReadWriteModevE3SetIS2_vEEvjEs:
        DATA8
        DC8 0x28, 0x73, 0x69, 0x7A, 0x65, 0x20, 0x3C, 0x20
        DC8 0x73, 0x69, 0x7A, 0x65, 0x6F, 0x66, 0x28, 0x52
        DC8 0x65, 0x67, 0x54, 0x79, 0x70, 0x65, 0x29, 0x20
        DC8 0x2A, 0x20, 0x38, 0x55, 0x29, 0x20, 0x3F, 0x20
        DC8 0x28, 0x76, 0x61, 0x6C, 0x75, 0x65, 0x20, 0x3C
        DC8 0x3D, 0x20, 0x28, 0x28, 0x73, 0x74, 0x61, 0x74
        DC8 0x69, 0x63, 0x5F, 0x63, 0x61, 0x73, 0x74, 0x3C
        DC8 0x52, 0x65, 0x67, 0x54, 0x79, 0x70, 0x65, 0x3E
        DC8 0x28, 0x31, 0x55, 0x29, 0x20, 0x3C, 0x3C, 0x20
        DC8 0x73, 0x69, 0x7A, 0x65, 0x29, 0x20, 0x2D, 0x20
        DC8 0x73, 0x74, 0x61, 0x74, 0x69, 0x63, 0x5F, 0x63
        DC8 0x61, 0x73, 0x74, 0x3C, 0x52, 0x65, 0x67, 0x54
        DC8 0x79, 0x70, 0x65, 0x3E, 0x28, 0x31, 0x55, 0x29
        DC8 0x29, 0x29, 0x20, 0x3A, 0x20, 0x28, 0x76, 0x61
        DC8 0x6C, 0x75, 0x65, 0x20, 0x3C, 0x3D, 0x20, 0x73
        DC8 0x74, 0x64, 0x3A, 0x3A, 0x6E, 0x75, 0x6D, 0x65
        DC8 0x72, 0x69, 0x63, 0x5F, 0x6C, 0x69, 0x6D, 0x69
        DC8 0x74, 0x73, 0x3C, 0x52, 0x65, 0x67, 0x54, 0x79
        DC8 0x70, 0x65, 0x3E, 0x3A, 0x3A, 0x6D, 0x61, 0x78
        DC8 0x28, 0x29, 0x29, 0

        SECTION `.rodata`:CONST:REORDER:NOROOT(2)
        SECTION_GROUP _ZZN13RegisterFieldIN6USART23BRRELj0ELj4E13ReadWriteModevE3SetIS2_vEEvjEs_0
        DATA
// __absolute char const <_ZZN13RegisterFieldIN6USART23BRRELj0ELj4E13ReadWriteModevE3SetIS2_vEEvjEs_0>[103]
_ZZN13RegisterFieldIN6USART23BRRELj0ELj4E13ReadWriteModevE3SetIS2_vEEvjEs_0:
        DATA8
        DC8 0x44, 0x3A, 0x5C, 0x44, 0x6F, 0x63, 0x75, 0x6D
        DC8 0x65, 0x6E, 0x74, 0x73, 0x5C, 0x48, 0x6F, 0x6D
        DC8 0x65, 0x77, 0x6F, 0x72, 0x6B, 0x5C, 0x47, 0x69
        DC8 0x74, 0x4C, 0x61, 0x62, 0x5C, 0x43, 0x6F, 0x75
        DC8 0x72, 0x73, 0x65, 0x50, 0x61, 0x70, 0x65, 0x72
        DC8 0x5C, 0x73, 0x6F, 0x75, 0x72, 0x63, 0x65, 0x5C
        DC8 0x43, 0x6F, 0x72, 0x74, 0x65, 0x78, 0x4C, 0x69
        DC8 0x62, 0x5C, 0x41, 0x62, 0x73, 0x74, 0x72, 0x61
        DC8 0x63, 0x74, 0x48, 0x61, 0x72, 0x64, 0x77, 0x61
        DC8 0x72, 0x65, 0x5C, 0x52, 0x65, 0x67, 0x69, 0x73
        DC8 0x74, 0x65, 0x72, 0x73, 0x5C, 0x72, 0x65, 0x67
        DC8 0x69, 0x73, 0x74, 0x65, 0x72, 0x66, 0x69, 0x65
        DC8 0x6C, 0x64, 0x2E, 0x68, 0x70, 0x70, 0
        DS8 1

        SECTION `.rodata`:CONST:REORDER:NOROOT(2)
        SECTION_GROUP _ZTI6IUsart
        DATA
// __absolute __class_type_info const <Typeinfo for IUsart>
_ZTI6IUsart:
        DATA32
        DC32 _ZTVN10__cxxabiv117__class_type_infoE + 0x8, _ZTS6IUsart

        SECTION `.rodata`:CONST:REORDER:NOROOT(2)
        SECTION_GROUP _ZTI5Usart
        DATA
// __absolute __si_class_type_info const <Typeinfo for Usart>
_ZTI5Usart:
        DATA32
        DC32 _ZTVN10__cxxabiv120__si_class_type_infoE + 0x8, _ZTS5Usart
        DC32 _ZTI6IUsart

        SECTION `.rodata`:CONST:REORDER:NOROOT(2)
        SECTION_GROUP _ZTS6IUsart
        DATA
// __absolute char const <Typeinfo name for IUsart>[8]
_ZTS6IUsart:
        DATA8
        DC8 "6IUsart"

        SECTION `.rodata`:CONST:REORDER:NOROOT(2)
        SECTION_GROUP _ZTS5Usart
        DATA
// __absolute char const <Typeinfo name for Usart>[7]
_ZTS5Usart:
        DATA8
        DC8 "5Usart"
        DS8 1

        SECTION `.rodata`:CONST:REORDER:NOROOT(2)
        SECTION_GROUP _ZTISt10ctype_base
        DATA
// __absolute __class_type_info const <Typeinfo for std::ctype_base>
_ZTISt10ctype_base:
        DATA32
        DC32 _ZTVN10__cxxabiv117__class_type_infoE + 0x8, _ZTSSt10ctype_base

        SECTION `.rodata`:CONST:REORDER:NOROOT(2)
        SECTION_GROUP _ZTSSt10ctype_base
        DATA
// __absolute char const <Typeinfo name for std::ctype_base>[15]
_ZTSSt10ctype_base:
        DATA8
        DC8 "St10ctype_base"
        DS8 1

        SECTION `.rodata`:CONST:REORDER:NOROOT(0)
        DATA
// D:\Documents\Homework\GitLab\CoursePaper\source\RtosWrapper\Application\Usart\Usart.cpp
//    1 #include "Usart.hpp" // for Usart
?_0:
        DATA8
        DS8 1
//    2 #include "gpioaregisters.hpp" // for GPIOA
//    3 #include "usart2registers.hpp" // USART2
//    4 

        SECTION `.text`:CODE:NOROOT(1)
          CFI Block cfiBlock0 Using cfiCommon0
          CFI Function _ZN5UsartC2Ev
        THUMB
// __vfp Usart::subobject Usart()
_ZN5UsartC2Ev:
        PUSH     {R4,LR}        
          CFI R14 Frame(CFA, -4)
          CFI R4 Frame(CFA, -8)
          CFI CFA R13+8
        MOVS     R4,R0          
        MOVS     R0,R4          
          CFI FunCall _ZN5UsartC1Ev
        BL       _ZN5UsartC1Ev  
        POP      {R4,PC}        
          CFI EndBlock cfiBlock0

        SECTION `.text`:CODE:NOROOT(1)
          CFI Block cfiBlock1 Using cfiCommon0
          CFI Function _ZN5UsartC1Ev
        THUMB
//    5 Usart::Usart()
//    6 {}
_ZN5UsartC1Ev:
        PUSH     {R4,LR}        
          CFI R14 Frame(CFA, -4)
          CFI R4 Frame(CFA, -8)
          CFI CFA R13+8
        MOVS     R4,R0          
        MOVS     R0,R4          
          CFI FunCall _ZN6IUsartC2Ev
        BL       _ZN6IUsartC2Ev 
        LDR.N    R0,??DataTable2
        STR      R0,[R4, #+0]   
        MOVS     R0,R4          
        POP      {R4,PC}        
          CFI EndBlock cfiBlock1
//    7 

        SECTION `.text`:CODE:NOROOT(1)
          CFI Block cfiBlock2 Using cfiCommon0
          CFI Function _ZN5Usart11SendMessageESs
        THUMB
//    8 void Usart::SendMessage(std::string message)
//    9 {
_ZN5Usart11SendMessageESs:
        PUSH     {R4-R6,LR}     
          CFI R14 Frame(CFA, -4)
          CFI R6 Frame(CFA, -8)
          CFI R5 Frame(CFA, -12)
          CFI R4 Frame(CFA, -16)
          CFI CFA R13+16
        MOVS     R4,R0          
        MOVS     R5,R1          
//   10   std::size_t i = 0;
        MOVS     R6,#+0         
//   11   while(i < message.length())
??SendMessage_0:
        MOVS     R0,R5          
          CFI FunCall _ZNKSs6lengthEv
        BL       _ZNKSs6lengthEv
        CMP      R6,R0          
        BCS.N    ??SendMessage_1
//   12   {
//   13     while(!USART2::SR::TXE::DataRegisterEmpty::IsSet())
??SendMessage_2:
          CFI FunCall _ZN14FieldValueBaseI20USART2_SR_TXE_ValuesIN6USART22SRELj7ELj1E8ReadModeNS1_12USART2SRBaseEES4_Lj1EE5IsSetIS3_vEEbv
        BL       _ZN14FieldValueBaseI20USART2_SR_TXE_ValuesIN6USART22SRELj7ELj1E8ReadModeNS1_12USART2SRBaseEES4_Lj1EE5IsSetIS3_vEEbv
        CMP      R0,#+0         
        BEQ.N    ??SendMessage_2
//   14     {
//   15     }
//   16     USART2::DR::Write(message[i++]);
        MOVS     R1,R6          
        MOVS     R0,R5          
          CFI FunCall _ZNSsixEj
        BL       _ZNSsixEj      
        ADDS     R6,R6,#+1      
        LDRB     R0,[R0, #+0]   
          CFI FunCall _ZN12RegisterBaseILj1073759236ELj32E13ReadWriteModeE5WriteIS0_vEEvj
        BL       _ZN12RegisterBaseILj1073759236ELj32E13ReadWriteModeE5WriteIS0_vEEvj
        B.N      ??SendMessage_0
//   17   }
//   18 }
??SendMessage_1:
        POP      {R4-R6,PC}     
          CFI EndBlock cfiBlock2
//   19 

        SECTION `.text`:CODE:NOROOT(1)
          CFI Block cfiBlock3 Using cfiCommon0
          CFI Function _ZN5Usart11ConfigUsartEv
        THUMB
//   20 void Usart::ConfigUsart()
//   21 {
_ZN5Usart11ConfigUsartEv:
        PUSH     {R4-R8,LR}     
          CFI R14 Frame(CFA, -4)
          CFI R8 Frame(CFA, -8)
          CFI R7 Frame(CFA, -12)
          CFI R6 Frame(CFA, -16)
          CFI R5 Frame(CFA, -20)
          CFI R4 Frame(CFA, -24)
          CFI CFA R13+24
        VPUSH    {D8}           
          CFI D8 Frame(CFA, -32)
          CFI CFA R13+32
        MOVS     R4,R0          
//   22   GPIOA::MODER::MODER3::Alternate::Set();
          CFI FunCall _ZN14FieldValueBaseI26GPIOA_MODER_MODER15_ValuesIN5GPIOA5MODERELj6ELj2E13ReadWriteModeNS1_14GPIOAMODERBaseEES4_Lj2EE3SetIS3_vEEvv
        BL       _ZN14FieldValueBaseI26GPIOA_MODER_MODER15_ValuesIN5GPIOA5MODERELj6ELj2E13ReadWriteModeNS1_14GPIOAMODERBaseEES4_Lj2EE3SetIS3_vEEvv
//   23   GPIOA::MODER::MODER2::Alternate::Set();
          CFI FunCall _ZN14FieldValueBaseI26GPIOA_MODER_MODER15_ValuesIN5GPIOA5MODERELj4ELj2E13ReadWriteModeNS1_14GPIOAMODERBaseEES4_Lj2EE3SetIS3_vEEvv
        BL       _ZN14FieldValueBaseI26GPIOA_MODER_MODER15_ValuesIN5GPIOA5MODERELj4ELj2E13ReadWriteModeNS1_14GPIOAMODERBaseEES4_Lj2EE3SetIS3_vEEvv
//   24   GPIOA::AFRL::AFRL3::Af7::Set();
          CFI FunCall _ZN14FieldValueBaseI23GPIOA_AFRL_AFRL7_ValuesIN5GPIOA4AFRLELj12ELj4E13ReadWriteModeNS1_13GPIOAAFRLBaseEES4_Lj7EE3SetIS3_vEEvv
        BL       _ZN14FieldValueBaseI23GPIOA_AFRL_AFRL7_ValuesIN5GPIOA4AFRLELj12ELj4E13ReadWriteModeNS1_13GPIOAAFRLBaseEES4_Lj7EE3SetIS3_vEEvv
//   25   GPIOA::AFRL::AFRL2::Af7::Set();
          CFI FunCall _ZN14FieldValueBaseI23GPIOA_AFRL_AFRL7_ValuesIN5GPIOA4AFRLELj8ELj4E13ReadWriteModeNS1_13GPIOAAFRLBaseEES4_Lj7EE3SetIS3_vEEvv
        BL       _ZN14FieldValueBaseI23GPIOA_AFRL_AFRL7_ValuesIN5GPIOA4AFRLELj8ELj4E13ReadWriteModeNS1_13GPIOAAFRLBaseEES4_Lj7EE3SetIS3_vEEvv
//   26   USART2::CR1::OVER8::OversamplingBy16::Set();
          CFI FunCall _ZN14FieldValueBaseI23USART2_CR1_OVER8_ValuesIN6USART23CR1ELj15ELj1E13ReadWriteModeNS1_13USART2CR1BaseEES4_Lj0EE3SetIS3_vEEvv
        BL       _ZN14FieldValueBaseI23USART2_CR1_OVER8_ValuesIN6USART23CR1ELj15ELj1E13ReadWriteModeNS1_13USART2CR1BaseEES4_Lj0EE3SetIS3_vEEvv
//   27   USART2::CR1::M::Data8bits::Set();
          CFI FunCall _ZN14FieldValueBaseI19USART2_CR1_M_ValuesIN6USART23CR1ELj12ELj1E13ReadWriteModeNS1_13USART2CR1BaseEES4_Lj0EE3SetIS3_vEEvv
        BL       _ZN14FieldValueBaseI19USART2_CR1_M_ValuesIN6USART23CR1ELj12ELj1E13ReadWriteModeNS1_13USART2CR1BaseEES4_Lj0EE3SetIS3_vEEvv
//   28   USART2::CR2::STOP::Value0::Set(); // 1 stop bit
          CFI FunCall _ZN14FieldValueBaseI22USART2_CR2_STOP_ValuesIN6USART23CR2ELj12ELj2E13ReadWriteModeNS1_13USART2CR2BaseEES4_Lj0EE3SetIS3_vEEvv
        BL       _ZN14FieldValueBaseI22USART2_CR2_STOP_ValuesIN6USART23CR2ELj12ELj2E13ReadWriteModeNS1_13USART2CR2BaseEES4_Lj0EE3SetIS3_vEEvv
//   29   USART2::CR1::PCE::ParityControlDisable::Set();
          CFI FunCall _ZN14FieldValueBaseI21USART2_CR1_PCE_ValuesIN6USART23CR1ELj10ELj1E13ReadWriteModeNS1_13USART2CR1BaseEES4_Lj0EE3SetIS3_vEEvv
        BL       _ZN14FieldValueBaseI21USART2_CR1_PCE_ValuesIN6USART23CR1ELj10ELj1E13ReadWriteModeNS1_13USART2CR1BaseEES4_Lj0EE3SetIS3_vEEvv
//   30   USART2::CR1::TXEIE::InterruptWhenTXE::Set();
          CFI FunCall _ZN14FieldValueBaseI23USART2_CR1_TXEIE_ValuesIN6USART23CR1ELj7ELj1E13ReadWriteModeNS1_13USART2CR1BaseEES4_Lj1EE3SetIS3_vEEvv
        BL       _ZN14FieldValueBaseI23USART2_CR1_TXEIE_ValuesIN6USART23CR1ELj7ELj1E13ReadWriteModeNS1_13USART2CR1BaseEES4_Lj1EE3SetIS3_vEEvv
//   31   constexpr std::uint32_t SystemCoreClock = 8'000'000U;
        LDR.N    R5,??DataTable2_1
//   32   constexpr std::uint32_t BaudRate = 9600;
        MOV      R6,#+9600      
//   33   double UsartDivDouble = 1.0 / (BaudRate * 8 * (2 - USART2::CR1::OVER8::Get())) * SystemCoreClock;
          CFI FunCall _ZN13RegisterFieldIN6USART23CR1ELj15ELj1E13ReadWriteModevE3GetIS2_vEEjv
        BL       _ZN13RegisterFieldIN6USART23CR1ELj15ELj1E13ReadWriteModevE3GetIS2_vEEjv
        RSBS     R0,R0,#+2      
        MOVS     R1,#+76800     
        MULS     R0,R1,R0       
          CFI FunCall __aeabi_ui2d
        BL       __aeabi_ui2d   
        MOVS     R2,R0          
        MOVS     R3,R1          
        MOVS     R0,#+0         
        LDR.N    R1,??DataTable2_2
          CFI FunCall __aeabi_ddiv
        BL       __aeabi_ddiv   
        MOVS     R2,#+0         
        LDR.N    R3,??DataTable2_3
          CFI FunCall __aeabi_dmul
        BL       __aeabi_dmul   
        VMOV     D8,R0,R1       
//   34   uint32_t UsartDivMantissa = static_cast<uint32_t>(UsartDivDouble);
        VMOV     R0,R1,D8       
          CFI FunCall __aeabi_d2uiz
        BL       __aeabi_d2uiz  
        MOVS     R7,R0          
//   35   uint16_t UsartDivFraction = static_cast<uint32_t>(round((UsartDivDouble - UsartDivMantissa) * 16));
        MOVS     R0,R7          
          CFI FunCall __aeabi_ui2d
        BL       __aeabi_ui2d   
        MOVS     R2,R0          
        MOVS     R3,R1          
        VMOV     R0,R1,D8       
          CFI FunCall __aeabi_dsub
        BL       __aeabi_dsub   
        MOVS     R2,#+0         
        LDR.N    R3,??DataTable2_4
          CFI FunCall __aeabi_dmul
        BL       __aeabi_dmul   
        VMOV     D0,R0,R1       
          CFI FunCall round
        BL       round          
        VMOV     R0,R1,D0       
          CFI FunCall __aeabi_d2uiz
        BL       __aeabi_d2uiz  
        MOV      R8,R0          
//   36   USART2::BRR::DIV_Mantissa::Set(UsartDivMantissa);
        MOVS     R0,R7          
          CFI FunCall _ZN13RegisterFieldIN6USART23BRRELj4ELj12E13ReadWriteModevE3SetIS2_vEEvj
        BL       _ZN13RegisterFieldIN6USART23BRRELj4ELj12E13ReadWriteModevE3SetIS2_vEEvj
//   37   USART2::BRR::DIV_Fraction::Set(UsartDivFraction);
        MOV      R0,R8          
        UXTH     R0,R0          
          CFI FunCall _ZN13RegisterFieldIN6USART23BRRELj0ELj4E13ReadWriteModevE3SetIS2_vEEvj
        BL       _ZN13RegisterFieldIN6USART23BRRELj0ELj4E13ReadWriteModevE3SetIS2_vEEvj
//   38   USART2::SR::TC::TransmitionNotComplete::Set();
          CFI FunCall _ZN14FieldValueBaseI19USART2_SR_TC_ValuesIN6USART22SRELj6ELj1E13ReadWriteModeNS1_12USART2SRBaseEES4_Lj0EE3SetIS3_vEEvv
        BL       _ZN14FieldValueBaseI19USART2_SR_TC_ValuesIN6USART22SRELj6ELj1E13ReadWriteModeNS1_12USART2SRBaseEES4_Lj0EE3SetIS3_vEEvv
//   39 }
        VPOP     {D8}           
          CFI D8 SameValue
          CFI CFA R13+24
        POP      {R4-R8,PC}     
          CFI EndBlock cfiBlock3

        SECTION `.text`:CODE:NOROOT(2)
        SECTION_TYPE SHT_PROGBITS, 0
        DATA
??DataTable2:
        DATA32
        DC32     _ZTV5Usart+0x8 

        SECTION `.text`:CODE:NOROOT(2)
        SECTION_TYPE SHT_PROGBITS, 0
        DATA
??DataTable2_1:
        DATA32
        DC32     0x7a1200       

        SECTION `.text`:CODE:NOROOT(2)
        SECTION_TYPE SHT_PROGBITS, 0
        DATA
??DataTable2_2:
        DATA32
        DC32     0x3ff00000     

        SECTION `.text`:CODE:NOROOT(2)
        SECTION_TYPE SHT_PROGBITS, 0
        DATA
??DataTable2_3:
        DATA32
        DC32     0x415e8480     

        SECTION `.text`:CODE:NOROOT(2)
        SECTION_TYPE SHT_PROGBITS, 0
        DATA
??DataTable2_4:
        DATA32
        DC32     0x40300000     

        SECTION `.text`:CODE:REORDER:NOROOT(1)
        SECTION_GROUP _ZSt10_AddressofIcEPT_RS0_St17integral_constantIbLb0EE
          CFI Block cfiBlock4 Using cfiCommon0
          CFI Function _ZSt10_AddressofIcEPT_RS0_St17integral_constantIbLb0EE
          CFI NoCalls
        THUMB
// __vfp char *std::_Addressof<char>(char &, std::false_type) noexcept
_ZSt10_AddressofIcEPT_RS0_St17integral_constantIbLb0EE:
        BX       LR             
          CFI EndBlock cfiBlock4

        SECTION `.text`:CODE:REORDER:NOROOT(2)
        SECTION_GROUP _ZSt9addressofIcEPT_RS0_
          CFI Block cfiBlock5 Using cfiCommon0
          CFI Function _ZSt9addressofIcEPT_RS0_
        THUMB
// __vfp char *std::addressof<char>(char &) noexcept
_ZSt9addressofIcEPT_RS0_:
        PUSH     {R4,LR}        
          CFI R14 Frame(CFA, -4)
          CFI R4 Frame(CFA, -8)
          CFI CFA R13+8
        MOVS     R4,R0          
        LDR.N    R0,??addressof_0
        LDRB     R1,[R0, #+0]   
        MOVS     R0,R4          
          CFI FunCall _ZSt10_AddressofIcEPT_RS0_St17integral_constantIbLb0EE
        BL       _ZSt10_AddressofIcEPT_RS0_St17integral_constantIbLb0EE
        POP      {R4,PC}        
        DATA
??addressof_0:
        DATA32
        DC32     ?_0            
          CFI EndBlock cfiBlock5

        SECTION `.text`:CODE:REORDER:NOROOT(1)
        SECTION_GROUP _ZNSt16_Compressed_pairISt11_Wrap_allocISaIcEESt11_String_valISt13_Simple_typesIcEELb1EE11_Get_secondEv
          CFI Block cfiBlock6 Using cfiCommon0
          CFI Function _ZNSt16_Compressed_pairISt11_Wrap_allocISaIcEESt11_String_valISt13_Simple_typesIcEELb1EE11_Get_secondEv
          CFI NoCalls
        THUMB
// __vfp std::_String_val<std::_Simple_types<char>> &std::_Compressed_pair<std::_Wrap_alloc<std::allocator<char>>, std::_String_val<std::_Simple_types<char>>>::_Get_second() noexcept
_ZNSt16_Compressed_pairISt11_Wrap_allocISaIcEESt11_String_valISt13_Simple_typesIcEELb1EE11_Get_secondEv:
        BX       LR             
          CFI EndBlock cfiBlock6

        SECTION `.text`:CODE:REORDER:NOROOT(1)
        SECTION_GROUP _ZNKSt16_Compressed_pairISt11_Wrap_allocISaIcEESt11_String_valISt13_Simple_typesIcEELb1EE11_Get_secondEv
          CFI Block cfiBlock7 Using cfiCommon0
          CFI Function _ZNKSt16_Compressed_pairISt11_Wrap_allocISaIcEESt11_String_valISt13_Simple_typesIcEELb1EE11_Get_secondEv
          CFI NoCalls
        THUMB
// __vfp std::_String_val<std::_Simple_types<char>> const &std::_Compressed_pair<std::_Wrap_alloc<std::allocator<char>>, std::_String_val<std::_Simple_types<char>>>::_Get_second() const noexcept
_ZNKSt16_Compressed_pairISt11_Wrap_allocISaIcEESt11_String_valISt13_Simple_typesIcEELb1EE11_Get_secondEv:
        BX       LR             
          CFI EndBlock cfiBlock7

        SECTION `.text`:CODE:REORDER:NOROOT(1)
        SECTION_GROUP _ZNSt11_String_valISt13_Simple_typesIcEE6_MyptrEv
          CFI Block cfiBlock8 Using cfiCommon0
          CFI Function _ZNSt11_String_valISt13_Simple_typesIcEE6_MyptrEv
        THUMB
// __vfp char *std::_String_val<std::_Simple_types<char>>::_Myptr()
_ZNSt11_String_valISt13_Simple_typesIcEE6_MyptrEv:
        PUSH     {R4,LR}        
          CFI R14 Frame(CFA, -4)
          CFI R4 Frame(CFA, -8)
          CFI CFA R13+8
        MOVS     R4,R0          
        LDR      R0,[R4, #+20]  
        CMP      R0,#+16        
        BCC.N    ??_Myptr_0     
        LDR      R0,[R4, #+0]   
          CFI FunCall _ZSt9addressofIcEPT_RS0_
        BL       _ZSt9addressofIcEPT_RS0_
        B.N      ??_Myptr_1     
??_Myptr_0:
        MOVS     R0,R4          
??_Myptr_1:
        POP      {R4,PC}        
          CFI EndBlock cfiBlock8

        SECTION `.text`:CODE:REORDER:NOROOT(1)
        SECTION_GROUP _ZNSt13_String_allocISt18_String_base_typesIcSaIcEEE6_MyptrEv
          CFI Block cfiBlock9 Using cfiCommon0
          CFI Function _ZNSt13_String_allocISt18_String_base_typesIcSaIcEEE6_MyptrEv
        THUMB
// __vfp char *std::_String_alloc<std::_String_base_types<char, std::allocator<char>>>::_Myptr()
_ZNSt13_String_allocISt18_String_base_typesIcSaIcEEE6_MyptrEv:
        PUSH     {R4,LR}        
          CFI R14 Frame(CFA, -4)
          CFI R4 Frame(CFA, -8)
          CFI CFA R13+8
        MOVS     R4,R0          
        MOVS     R0,R4          
          CFI FunCall _ZNSt13_String_allocISt18_String_base_typesIcSaIcEEE9_Get_dataEv
        BL       _ZNSt13_String_allocISt18_String_base_typesIcSaIcEEE9_Get_dataEv
          CFI FunCall _ZNSt11_String_valISt13_Simple_typesIcEE6_MyptrEv
        BL       _ZNSt11_String_valISt13_Simple_typesIcEE6_MyptrEv
        POP      {R4,PC}        
          CFI EndBlock cfiBlock9

        SECTION `.text`:CODE:REORDER:NOROOT(1)
        SECTION_GROUP _ZNSt13_String_allocISt18_String_base_typesIcSaIcEEE9_Get_dataEv
          CFI Block cfiBlock10 Using cfiCommon0
          CFI Function _ZNSt13_String_allocISt18_String_base_typesIcSaIcEEE9_Get_dataEv
        THUMB
// __vfp std::_String_val<std::_Simple_types<char>> &std::_String_alloc<std::_String_base_types<char, std::allocator<char>>>::_Get_data() noexcept
_ZNSt13_String_allocISt18_String_base_typesIcSaIcEEE9_Get_dataEv:
        PUSH     {R4,LR}        
          CFI R14 Frame(CFA, -4)
          CFI R4 Frame(CFA, -8)
          CFI CFA R13+8
        MOVS     R4,R0          
        MOVS     R0,R4          
          CFI FunCall _ZNSt16_Compressed_pairISt11_Wrap_allocISaIcEESt11_String_valISt13_Simple_typesIcEELb1EE11_Get_secondEv
        BL       _ZNSt16_Compressed_pairISt11_Wrap_allocISaIcEESt11_String_valISt13_Simple_typesIcEELb1EE11_Get_secondEv
        POP      {R4,PC}        
          CFI EndBlock cfiBlock10

        SECTION `.text`:CODE:REORDER:NOROOT(1)
        SECTION_GROUP _ZNKSt13_String_allocISt18_String_base_typesIcSaIcEEE9_Get_dataEv
          CFI Block cfiBlock11 Using cfiCommon0
          CFI Function _ZNKSt13_String_allocISt18_String_base_typesIcSaIcEEE9_Get_dataEv
        THUMB
// __vfp std::_String_val<std::_Simple_types<char>> const &std::_String_alloc<std::_String_base_types<char, std::allocator<char>>>::_Get_data() const noexcept
_ZNKSt13_String_allocISt18_String_base_typesIcSaIcEEE9_Get_dataEv:
        PUSH     {R4,LR}        
          CFI R14 Frame(CFA, -4)
          CFI R4 Frame(CFA, -8)
          CFI CFA R13+8
        MOVS     R4,R0          
        MOVS     R0,R4          
          CFI FunCall _ZNKSt16_Compressed_pairISt11_Wrap_allocISaIcEESt11_String_valISt13_Simple_typesIcEELb1EE11_Get_secondEv
        BL       _ZNKSt16_Compressed_pairISt11_Wrap_allocISaIcEESt11_String_valISt13_Simple_typesIcEELb1EE11_Get_secondEv
        POP      {R4,PC}        
          CFI EndBlock cfiBlock11

        SECTION `.text`:CODE:REORDER:NOROOT(1)
        SECTION_GROUP _ZNKSt13_String_allocISt18_String_base_typesIcSaIcEEE7_MysizeEv
          CFI Block cfiBlock12 Using cfiCommon0
          CFI Function _ZNKSt13_String_allocISt18_String_base_typesIcSaIcEEE7_MysizeEv
        THUMB
// __vfp size_t const &std::_String_alloc<std::_String_base_types<char, std::allocator<char>>>::_Mysize() const noexcept
_ZNKSt13_String_allocISt18_String_base_typesIcSaIcEEE7_MysizeEv:
        PUSH     {R4,LR}        
          CFI R14 Frame(CFA, -4)
          CFI R4 Frame(CFA, -8)
          CFI CFA R13+8
        MOVS     R4,R0          
        MOVS     R0,R4          
          CFI FunCall _ZNKSt13_String_allocISt18_String_base_typesIcSaIcEEE9_Get_dataEv
        BL       _ZNKSt13_String_allocISt18_String_base_typesIcSaIcEEE9_Get_dataEv
        ADDS     R0,R0,#+16     
        POP      {R4,PC}        
          CFI EndBlock cfiBlock12

        SECTION `.text`:CODE:REORDER:NOROOT(1)
        SECTION_GROUP _ZNSsixEj
          CFI Block cfiBlock13 Using cfiCommon0
          CFI Function _ZNSsixEj
        THUMB
// __vfp char & std::string::operator[](size_t)
_ZNSsixEj:
        PUSH     {R3-R5,LR}     
          CFI R14 Frame(CFA, -4)
          CFI R5 Frame(CFA, -8)
          CFI R4 Frame(CFA, -12)
          CFI CFA R13+16
        MOVS     R4,R0          
        MOVS     R5,R1          
        MOVS     R0,R4          
          CFI FunCall _ZNSt13_String_allocISt18_String_base_typesIcSaIcEEE6_MyptrEv
        BL       _ZNSt13_String_allocISt18_String_base_typesIcSaIcEEE6_MyptrEv
        ADD      R0,R0,R5       
        POP      {R1,R4,R5,PC}  
          CFI EndBlock cfiBlock13

        SECTION `.text`:CODE:REORDER:NOROOT(1)
        SECTION_GROUP _ZNKSs6lengthEv
          CFI Block cfiBlock14 Using cfiCommon0
          CFI Function _ZNKSs6lengthEv
        THUMB
// __vfp size_t std::string::length() const noexcept
_ZNKSs6lengthEv:
        PUSH     {R4,LR}        
          CFI R14 Frame(CFA, -4)
          CFI R4 Frame(CFA, -8)
          CFI CFA R13+8
        MOVS     R4,R0          
        MOVS     R0,R4          
          CFI FunCall _ZNKSt13_String_allocISt18_String_base_typesIcSaIcEEE7_MysizeEv
        BL       _ZNKSt13_String_allocISt18_String_base_typesIcSaIcEEE7_MysizeEv
        LDR      R0,[R0, #+0]   
        POP      {R4,PC}        
          CFI EndBlock cfiBlock14

        SECTION `.text`:CODE:REORDER:NOROOT(1)
        SECTION_GROUP _ZN6IUsartC2Ev
          CFI Block cfiBlock15 Using cfiCommon0
          CFI Function _ZN6IUsartC2Ev
        THUMB
// __vfp IUsart::subobject IUsart() noexcept
_ZN6IUsartC2Ev:
        PUSH     {R4,LR}        
          CFI R14 Frame(CFA, -4)
          CFI R4 Frame(CFA, -8)
          CFI CFA R13+8
        MOVS     R4,R0          
        MOVS     R0,R4          
          CFI FunCall _ZN6IUsartC1Ev
        BL       _ZN6IUsartC1Ev 
        POP      {R4,PC}        
          CFI EndBlock cfiBlock15

        SECTION `.text`:CODE:REORDER:NOROOT(1)
        SECTION_GROUP _ZN6IUsartC1Ev
          CFI Block cfiBlock16 Using cfiCommon0
          CFI Function _ZN6IUsartC1Ev
          CFI NoCalls
        THUMB
// __vfp IUsart::IUsart() noexcept
_ZN6IUsartC1Ev:
        BX       LR             
          CFI EndBlock cfiBlock16

        SECTION `.text`:CODE:REORDER:NOROOT(2)
        SECTION_GROUP _ZN13RegisterFieldIN6USART23BRRELj4ELj12E13ReadWriteModevE3SetIS2_vEEvj
          CFI Block cfiBlock17 Using cfiCommon0
          CFI Function _ZN13RegisterFieldIN6USART23BRRELj4ELj12E13ReadWriteModevE3SetIS2_vEEvj
        THUMB
// __vfp void RegisterField<USART2::BRR, 4U, 12U, ReadWriteMode>::Set<ReadWriteMode, void>(uint32_t)
_ZN13RegisterFieldIN6USART23BRRELj4ELj12E13ReadWriteModevE3SetIS2_vEEvj:
        PUSH     {R4,LR}        
          CFI R14 Frame(CFA, -4)
          CFI R4 Frame(CFA, -8)
          CFI CFA R13+8
        MOVS     R4,R0          
        CMP      R4,#+4096      
        BCC.N    ??Set_12       
        MOVS     R2,#+31        
        LDR.N    R1,??Set_0     
        LDR.N    R0,??Set_0+0x4 
          CFI FunCall __aeabi_assert
        BL       __aeabi_assert 
          CFI FunCall __iar_EmptyStepPoint
        BL       __iar_EmptyStepPoint
??Set_12:
        LDR.N    R1,??Set_0+0x8 
        LDR      R0,[R1, #+0]   
        BFC      R0,#+4,#+12    
        ORRS     R0,R0,R4, LSL #+4
        STR      R0,[R1, #+0]   
        POP      {R4,PC}        
        DATA
??Set_0:
        DATA32
        DC32     _ZZN13RegisterFieldIN6USART23BRRELj4ELj12E13ReadWriteModevE3SetIS2_vEEvjEs_0
        DC32     _ZZN13RegisterFieldIN6USART23BRRELj4ELj12E13ReadWriteModevE3SetIS2_vEEvjEs
        DC32     0x40004408     
          CFI EndBlock cfiBlock17

        SECTION `.text`:CODE:REORDER:NOROOT(2)
        SECTION_GROUP _ZN13RegisterFieldIN6USART23BRRELj0ELj4E13ReadWriteModevE3SetIS2_vEEvj
          CFI Block cfiBlock18 Using cfiCommon0
          CFI Function _ZN13RegisterFieldIN6USART23BRRELj0ELj4E13ReadWriteModevE3SetIS2_vEEvj
        THUMB
// __vfp void RegisterField<USART2::BRR, 0U, 4U, ReadWriteMode>::Set<ReadWriteMode, void>(uint32_t)
_ZN13RegisterFieldIN6USART23BRRELj0ELj4E13ReadWriteModevE3SetIS2_vEEvj:
        PUSH     {R4,LR}        
          CFI R14 Frame(CFA, -4)
          CFI R4 Frame(CFA, -8)
          CFI CFA R13+8
        MOVS     R4,R0          
        CMP      R4,#+16        
        BCC.N    ??Set_13       
        MOVS     R2,#+31        
        LDR.N    R1,??Set_1     
        LDR.N    R0,??Set_1+0x4 
          CFI FunCall __aeabi_assert
        BL       __aeabi_assert 
          CFI FunCall __iar_EmptyStepPoint
        BL       __iar_EmptyStepPoint
??Set_13:
        LDR.N    R1,??Set_1+0x8 
        LDR      R0,[R1, #+0]   
        LSRS     R0,R0,#+4      
        LSLS     R0,R0,#+4      
        ORRS     R0,R4,R0       
        STR      R0,[R1, #+0]   
        POP      {R4,PC}        
        DATA
??Set_1:
        DATA32
        DC32     _ZZN13RegisterFieldIN6USART23BRRELj0ELj4E13ReadWriteModevE3SetIS2_vEEvjEs_0
        DC32     _ZZN13RegisterFieldIN6USART23BRRELj0ELj4E13ReadWriteModevE3SetIS2_vEEvjEs
        DC32     0x40004408     
          CFI EndBlock cfiBlock18

        SECTION `.text`:CODE:REORDER:NOROOT(2)
        SECTION_GROUP _ZN13RegisterFieldIN6USART23CR1ELj15ELj1E13ReadWriteModevE3GetIS2_vEEjv
          CFI Block cfiBlock19 Using cfiCommon0
          CFI Function _ZN13RegisterFieldIN6USART23CR1ELj15ELj1E13ReadWriteModevE3GetIS2_vEEjv
          CFI NoCalls
        THUMB
// __vfp uint32_t RegisterField<USART2::CR1, 15U, 1U, ReadWriteMode>::Get<ReadWriteMode, void>()
_ZN13RegisterFieldIN6USART23CR1ELj15ELj1E13ReadWriteModevE3GetIS2_vEEjv:
        LDR.N    R0,??Get_0     
        LDR      R0,[R0, #+0]   
        UBFX     R0,R0,#+15,#+1 
        BX       LR             
        Nop                     
        DATA
??Get_0:
        DATA32
        DC32     0x4000440c     
          CFI EndBlock cfiBlock19

        SECTION `.text`:CODE:REORDER:NOROOT(2)
        SECTION_GROUP _ZN14FieldValueBaseI26GPIOA_MODER_MODER15_ValuesIN5GPIOA5MODERELj6ELj2E13ReadWriteModeNS1_14GPIOAMODERBaseEES4_Lj2EE3SetIS3_vEEvv
          CFI Block cfiBlock20 Using cfiCommon0
          CFI Function _ZN14FieldValueBaseI26GPIOA_MODER_MODER15_ValuesIN5GPIOA5MODERELj6ELj2E13ReadWriteModeNS1_14GPIOAMODERBaseEES4_Lj2EE3SetIS3_vEEvv
          CFI NoCalls
        THUMB
// __vfp void FieldValueBase<GPIOA_MODER_MODER15_Values<GPIOA::MODER, 6U, 2U, ReadWriteMode, GPIOA::GPIOAMODERBase>, GPIOA::GPIOAMODERBase, 2U>::Set<ReadWriteMode, void>()
_ZN14FieldValueBaseI26GPIOA_MODER_MODER15_ValuesIN5GPIOA5MODERELj6ELj2E13ReadWriteModeNS1_14GPIOAMODERBaseEES4_Lj2EE3SetIS3_vEEvv:
        LDR.N    R1,??Set_2     
        LDR      R0,[R1, #+0]   
        BICS     R0,R0,#0xC0    
        ORRS     R0,R0,#0x80    
        STR      R0,[R1, #+0]   
        BX       LR             
        DATA
??Set_2:
        DATA32
        DC32     0x40020000     
          CFI EndBlock cfiBlock20

        SECTION `.text`:CODE:REORDER:NOROOT(2)
        SECTION_GROUP _ZN14FieldValueBaseI26GPIOA_MODER_MODER15_ValuesIN5GPIOA5MODERELj4ELj2E13ReadWriteModeNS1_14GPIOAMODERBaseEES4_Lj2EE3SetIS3_vEEvv
          CFI Block cfiBlock21 Using cfiCommon0
          CFI Function _ZN14FieldValueBaseI26GPIOA_MODER_MODER15_ValuesIN5GPIOA5MODERELj4ELj2E13ReadWriteModeNS1_14GPIOAMODERBaseEES4_Lj2EE3SetIS3_vEEvv
          CFI NoCalls
        THUMB
// __vfp void FieldValueBase<GPIOA_MODER_MODER15_Values<GPIOA::MODER, 4U, 2U, ReadWriteMode, GPIOA::GPIOAMODERBase>, GPIOA::GPIOAMODERBase, 2U>::Set<ReadWriteMode, void>()
_ZN14FieldValueBaseI26GPIOA_MODER_MODER15_ValuesIN5GPIOA5MODERELj4ELj2E13ReadWriteModeNS1_14GPIOAMODERBaseEES4_Lj2EE3SetIS3_vEEvv:
        LDR.N    R1,??Set_3     
        LDR      R0,[R1, #+0]   
        BICS     R0,R0,#0x30    
        ORRS     R0,R0,#0x20    
        STR      R0,[R1, #+0]   
        BX       LR             
        DATA
??Set_3:
        DATA32
        DC32     0x40020000     
          CFI EndBlock cfiBlock21

        SECTION `.text`:CODE:REORDER:NOROOT(2)
        SECTION_GROUP _ZN14FieldValueBaseI23GPIOA_AFRL_AFRL7_ValuesIN5GPIOA4AFRLELj12ELj4E13ReadWriteModeNS1_13GPIOAAFRLBaseEES4_Lj7EE3SetIS3_vEEvv
          CFI Block cfiBlock22 Using cfiCommon0
          CFI Function _ZN14FieldValueBaseI23GPIOA_AFRL_AFRL7_ValuesIN5GPIOA4AFRLELj12ELj4E13ReadWriteModeNS1_13GPIOAAFRLBaseEES4_Lj7EE3SetIS3_vEEvv
          CFI NoCalls
        THUMB
// __vfp void FieldValueBase<GPIOA_AFRL_AFRL7_Values<GPIOA::AFRL, 12U, 4U, ReadWriteMode, GPIOA::GPIOAAFRLBase>, GPIOA::GPIOAAFRLBase, 7U>::Set<ReadWriteMode, void>()
_ZN14FieldValueBaseI23GPIOA_AFRL_AFRL7_ValuesIN5GPIOA4AFRLELj12ELj4E13ReadWriteModeNS1_13GPIOAAFRLBaseEES4_Lj7EE3SetIS3_vEEvv:
        LDR.N    R1,??Set_4     
        LDR      R0,[R1, #+0]   
        BICS     R0,R0,#0xF000  
        ORRS     R0,R0,#0x7000  
        STR      R0,[R1, #+0]   
        BX       LR             
        DATA
??Set_4:
        DATA32
        DC32     0x40020020     
          CFI EndBlock cfiBlock22

        SECTION `.text`:CODE:REORDER:NOROOT(2)
        SECTION_GROUP _ZN14FieldValueBaseI23GPIOA_AFRL_AFRL7_ValuesIN5GPIOA4AFRLELj8ELj4E13ReadWriteModeNS1_13GPIOAAFRLBaseEES4_Lj7EE3SetIS3_vEEvv
          CFI Block cfiBlock23 Using cfiCommon0
          CFI Function _ZN14FieldValueBaseI23GPIOA_AFRL_AFRL7_ValuesIN5GPIOA4AFRLELj8ELj4E13ReadWriteModeNS1_13GPIOAAFRLBaseEES4_Lj7EE3SetIS3_vEEvv
          CFI NoCalls
        THUMB
// __vfp void FieldValueBase<GPIOA_AFRL_AFRL7_Values<GPIOA::AFRL, 8U, 4U, ReadWriteMode, GPIOA::GPIOAAFRLBase>, GPIOA::GPIOAAFRLBase, 7U>::Set<ReadWriteMode, void>()
_ZN14FieldValueBaseI23GPIOA_AFRL_AFRL7_ValuesIN5GPIOA4AFRLELj8ELj4E13ReadWriteModeNS1_13GPIOAAFRLBaseEES4_Lj7EE3SetIS3_vEEvv:
        LDR.N    R1,??Set_5     
        LDR      R0,[R1, #+0]   
        BICS     R0,R0,#0xF00   
        ORRS     R0,R0,#0x700   
        STR      R0,[R1, #+0]   
        BX       LR             
        DATA
??Set_5:
        DATA32
        DC32     0x40020020     
          CFI EndBlock cfiBlock23

        SECTION `.text`:CODE:REORDER:NOROOT(2)
        SECTION_GROUP _ZN14FieldValueBaseI23USART2_CR1_OVER8_ValuesIN6USART23CR1ELj15ELj1E13ReadWriteModeNS1_13USART2CR1BaseEES4_Lj0EE3SetIS3_vEEvv
          CFI Block cfiBlock24 Using cfiCommon0
          CFI Function _ZN14FieldValueBaseI23USART2_CR1_OVER8_ValuesIN6USART23CR1ELj15ELj1E13ReadWriteModeNS1_13USART2CR1BaseEES4_Lj0EE3SetIS3_vEEvv
          CFI NoCalls
        THUMB
// __vfp void FieldValueBase<USART2_CR1_OVER8_Values<USART2::CR1, 15U, 1U, ReadWriteMode, USART2::USART2CR1Base>, USART2::USART2CR1Base, 0U>::Set<ReadWriteMode, void>()
_ZN14FieldValueBaseI23USART2_CR1_OVER8_ValuesIN6USART23CR1ELj15ELj1E13ReadWriteModeNS1_13USART2CR1BaseEES4_Lj0EE3SetIS3_vEEvv:
        LDR.N    R1,??Set_6     
        LDR      R0,[R1, #+0]   
        BICS     R0,R0,#0x8000  
        STR      R0,[R1, #+0]   
        BX       LR             
        DATA
??Set_6:
        DATA32
        DC32     0x4000440c     
          CFI EndBlock cfiBlock24

        SECTION `.text`:CODE:REORDER:NOROOT(2)
        SECTION_GROUP _ZN14FieldValueBaseI19USART2_CR1_M_ValuesIN6USART23CR1ELj12ELj1E13ReadWriteModeNS1_13USART2CR1BaseEES4_Lj0EE3SetIS3_vEEvv
          CFI Block cfiBlock25 Using cfiCommon0
          CFI Function _ZN14FieldValueBaseI19USART2_CR1_M_ValuesIN6USART23CR1ELj12ELj1E13ReadWriteModeNS1_13USART2CR1BaseEES4_Lj0EE3SetIS3_vEEvv
          CFI NoCalls
        THUMB
// __vfp void FieldValueBase<USART2_CR1_M_Values<USART2::CR1, 12U, 1U, ReadWriteMode, USART2::USART2CR1Base>, USART2::USART2CR1Base, 0U>::Set<ReadWriteMode, void>()
_ZN14FieldValueBaseI19USART2_CR1_M_ValuesIN6USART23CR1ELj12ELj1E13ReadWriteModeNS1_13USART2CR1BaseEES4_Lj0EE3SetIS3_vEEvv:
        LDR.N    R1,??Set_7     
        LDR      R0,[R1, #+0]   
        BICS     R0,R0,#0x1000  
        STR      R0,[R1, #+0]   
        BX       LR             
        DATA
??Set_7:
        DATA32
        DC32     0x4000440c     
          CFI EndBlock cfiBlock25

        SECTION `.text`:CODE:REORDER:NOROOT(2)
        SECTION_GROUP _ZN14FieldValueBaseI22USART2_CR2_STOP_ValuesIN6USART23CR2ELj12ELj2E13ReadWriteModeNS1_13USART2CR2BaseEES4_Lj0EE3SetIS3_vEEvv
          CFI Block cfiBlock26 Using cfiCommon0
          CFI Function _ZN14FieldValueBaseI22USART2_CR2_STOP_ValuesIN6USART23CR2ELj12ELj2E13ReadWriteModeNS1_13USART2CR2BaseEES4_Lj0EE3SetIS3_vEEvv
          CFI NoCalls
        THUMB
// __vfp void FieldValueBase<USART2_CR2_STOP_Values<USART2::CR2, 12U, 2U, ReadWriteMode, USART2::USART2CR2Base>, USART2::USART2CR2Base, 0U>::Set<ReadWriteMode, void>()
_ZN14FieldValueBaseI22USART2_CR2_STOP_ValuesIN6USART23CR2ELj12ELj2E13ReadWriteModeNS1_13USART2CR2BaseEES4_Lj0EE3SetIS3_vEEvv:
        LDR.N    R1,??Set_8     
        LDR      R0,[R1, #+0]   
        BICS     R0,R0,#0x3000  
        STR      R0,[R1, #+0]   
        BX       LR             
        DATA
??Set_8:
        DATA32
        DC32     0x40004410     
          CFI EndBlock cfiBlock26

        SECTION `.text`:CODE:REORDER:NOROOT(2)
        SECTION_GROUP _ZN14FieldValueBaseI21USART2_CR1_PCE_ValuesIN6USART23CR1ELj10ELj1E13ReadWriteModeNS1_13USART2CR1BaseEES4_Lj0EE3SetIS3_vEEvv
          CFI Block cfiBlock27 Using cfiCommon0
          CFI Function _ZN14FieldValueBaseI21USART2_CR1_PCE_ValuesIN6USART23CR1ELj10ELj1E13ReadWriteModeNS1_13USART2CR1BaseEES4_Lj0EE3SetIS3_vEEvv
          CFI NoCalls
        THUMB
// __vfp void FieldValueBase<USART2_CR1_PCE_Values<USART2::CR1, 10U, 1U, ReadWriteMode, USART2::USART2CR1Base>, USART2::USART2CR1Base, 0U>::Set<ReadWriteMode, void>()
_ZN14FieldValueBaseI21USART2_CR1_PCE_ValuesIN6USART23CR1ELj10ELj1E13ReadWriteModeNS1_13USART2CR1BaseEES4_Lj0EE3SetIS3_vEEvv:
        LDR.N    R1,??Set_9     
        LDR      R0,[R1, #+0]   
        BICS     R0,R0,#0x400   
        STR      R0,[R1, #+0]   
        BX       LR             
        DATA
??Set_9:
        DATA32
        DC32     0x4000440c     
          CFI EndBlock cfiBlock27

        SECTION `.text`:CODE:REORDER:NOROOT(2)
        SECTION_GROUP _ZN14FieldValueBaseI23USART2_CR1_TXEIE_ValuesIN6USART23CR1ELj7ELj1E13ReadWriteModeNS1_13USART2CR1BaseEES4_Lj1EE3SetIS3_vEEvv
          CFI Block cfiBlock28 Using cfiCommon0
          CFI Function _ZN14FieldValueBaseI23USART2_CR1_TXEIE_ValuesIN6USART23CR1ELj7ELj1E13ReadWriteModeNS1_13USART2CR1BaseEES4_Lj1EE3SetIS3_vEEvv
          CFI NoCalls
        THUMB
// __vfp void FieldValueBase<USART2_CR1_TXEIE_Values<USART2::CR1, 7U, 1U, ReadWriteMode, USART2::USART2CR1Base>, USART2::USART2CR1Base, 1U>::Set<ReadWriteMode, void>()
_ZN14FieldValueBaseI23USART2_CR1_TXEIE_ValuesIN6USART23CR1ELj7ELj1E13ReadWriteModeNS1_13USART2CR1BaseEES4_Lj1EE3SetIS3_vEEvv:
        LDR.N    R1,??Set_10    
        LDR      R0,[R1, #+0]   
        BICS     R0,R0,#0x80    
        ORRS     R0,R0,#0x80    
        STR      R0,[R1, #+0]   
        BX       LR             
        DATA
??Set_10:
        DATA32
        DC32     0x4000440c     
          CFI EndBlock cfiBlock28

        SECTION `.text`:CODE:REORDER:NOROOT(2)
        SECTION_GROUP _ZN14FieldValueBaseI19USART2_SR_TC_ValuesIN6USART22SRELj6ELj1E13ReadWriteModeNS1_12USART2SRBaseEES4_Lj0EE3SetIS3_vEEvv
          CFI Block cfiBlock29 Using cfiCommon0
          CFI Function _ZN14FieldValueBaseI19USART2_SR_TC_ValuesIN6USART22SRELj6ELj1E13ReadWriteModeNS1_12USART2SRBaseEES4_Lj0EE3SetIS3_vEEvv
          CFI NoCalls
        THUMB
// __vfp void FieldValueBase<USART2_SR_TC_Values<USART2::SR, 6U, 1U, ReadWriteMode, USART2::USART2SRBase>, USART2::USART2SRBase, 0U>::Set<ReadWriteMode, void>()
_ZN14FieldValueBaseI19USART2_SR_TC_ValuesIN6USART22SRELj6ELj1E13ReadWriteModeNS1_12USART2SRBaseEES4_Lj0EE3SetIS3_vEEvv:
        LDR.N    R1,??Set_11    
        LDR      R0,[R1, #+0]   
        BICS     R0,R0,#0x40    
        STR      R0,[R1, #+0]   
        BX       LR             
        DATA
??Set_11:
        DATA32
        DC32     0x40004400     
          CFI EndBlock cfiBlock29

        SECTION `.text`:CODE:REORDER:NOROOT(2)
        SECTION_GROUP _ZN14FieldValueBaseI20USART2_SR_TXE_ValuesIN6USART22SRELj7ELj1E8ReadModeNS1_12USART2SRBaseEES4_Lj1EE5IsSetIS3_vEEbv
          CFI Block cfiBlock30 Using cfiCommon0
          CFI Function _ZN14FieldValueBaseI20USART2_SR_TXE_ValuesIN6USART22SRELj7ELj1E8ReadModeNS1_12USART2SRBaseEES4_Lj1EE5IsSetIS3_vEEbv
          CFI NoCalls
        THUMB
// __vfp bool FieldValueBase<USART2_SR_TXE_Values<USART2::SR, 7U, 1U, ReadMode, USART2::USART2SRBase>, USART2::USART2SRBase, 1U>::IsSet<ReadMode, void>()
_ZN14FieldValueBaseI20USART2_SR_TXE_ValuesIN6USART22SRELj7ELj1E8ReadModeNS1_12USART2SRBaseEES4_Lj1EE5IsSetIS3_vEEbv:
        LDR.N    R0,??IsSet_0   
        LDR      R0,[R0, #+0]   
        LSRS     R0,R0,#+7      
        ANDS     R0,R0,#0x1     
        BX       LR             
        DATA
??IsSet_0:
        DATA32
        DC32     0x40004400     
          CFI EndBlock cfiBlock30

        SECTION `.text`:CODE:REORDER:NOROOT(2)
        SECTION_GROUP _ZN12RegisterBaseILj1073759236ELj32E13ReadWriteModeE5WriteIS0_vEEvj
          CFI Block cfiBlock31 Using cfiCommon0
          CFI Function _ZN12RegisterBaseILj1073759236ELj32E13ReadWriteModeE5WriteIS0_vEEvj
          CFI NoCalls
        THUMB
// __vfp void RegisterBase<1'073'759'236U, 32U, ReadWriteMode>::Write<ReadWriteMode, void>(uint32_t)
_ZN12RegisterBaseILj1073759236ELj32E13ReadWriteModeE5WriteIS0_vEEvj:
        LDR.N    R1,??Write_0   
        STR      R0,[R1, #+0]   
        BX       LR             
        Nop                     
        DATA
??Write_0:
        DATA32
        DC32     0x40004404     
          CFI EndBlock cfiBlock31

        SECTION `.iar_vfe_vtableinfo_ZTV5Usart`:DATA:NOALLOC:NOROOT(2)
        SECTION_TYPE SHT_PROGBITS, 0
        SECTION_GROUP _ZTV5Usart
        DATA
        DC32    _ZTV5Usart
        DC32    3
        DC32    2
        DC32    _ZTI5Usart
        DC32    1
        DC32    2
        DC32    0
        DC32    _ZTI6IUsart
        DC32    0
        DC32    1
        DC32    _ZTI5Usart
        DC32    1
        DC32    2
        DC32    0

        SECTION `.iar_vfe_header`:DATA:NOALLOC:NOROOT(2)
        SECTION_TYPE SHT_PROGBITS, 0
        DATA
        DC32 0

        END
// 
// 593 bytes in section .rodata
// 740 bytes in section .text
// 
// 270 bytes of CODE  memory (+ 470 bytes shared)
//   1 byte  of CONST memory (+ 592 bytes shared)
//
//Errors: none
//Warnings: none
